lb5_4000:      ; [global]
4000: 7E 41 00       JMP    $4100
lb5_4003:      ; [global]
4003: 7E 42 57       JMP    $4257
lb5_4006:      ; [global]
4006: 7E 4D D9       JMP    $4DD9
lb5_4009:      ; [global]
4009: 7E 51 0F       JMP    $510F
lb5_400c:      ; [global]
400C: 7E 52 17       JMP    $5217
lb5_400f:      ; [global]
400F: 7E 52 77       JMP    $5277
lb5_4012:      ; [global]
4012: 7E 53 21       JMP    $5321
lb5_4015:      ; [global]
4015: 7E 53 91       JMP    $5391
lb5_4018:      ; [global]
4018: 7E 53 D6       JMP    $53D6
lb5_401b:      ; [global]
401B: 7E 58 30       JMP    $5830
lb5_401e:      ; [global]
401E: 7E 5C A3       JMP    $5CA3
lb5_4021:      ; [global]
4021: 7E 5D AD       JMP    $5DAD
lb5_4024:      ; [global]
4024: 7E 5D E3       JMP    $5DE3
lb5_4027:      ; [global]
4027: 7E 5D E3       JMP    $5DE3
lb5_402a:      ; [global]
402A: 7E 5D E4       JMP    $5DE4
lb5_402d:      ; [global]
402D: 7E 5E 2E       JMP    $5E2E
lb5_4030:      ; [global]
4030: 7E 5E 78       JMP    $5E78
lb5_4033:      ; [global]
4033: 7E 5E BB       JMP    $5EBB
lb5_4036:      ; [global]
4036: 7E 5F 42       JMP    $5F42
lb5_4039:      ; [global]
4039: 7E 55 A8       JMP    $55A8
lb5_403c:      ; [global]
403C: 7E 55 A9       JMP    $55A9
lb5_403f:      ; [global]
403F: 7E 5D E3       JMP    $5DE3
lb5_4042:      ; [global]
4042: 7E 5D E3       JMP    $5DE3
lb5_4045:      ; [global]
4045: 7E 60 06       JMP    $6006
lb5_4048:      ; [global]
4048: 7E 60 8B       JMP    $608B
lb5_404b:      ; [global]
404B: 7E 60 72       JMP    $6072
lb5_404e:      ; [global]
404E: 7E 60 9B       JMP    $609B
lb5_4051:      ; [global]
4051: 7E 65 24       JMP    $6524
lb5_4054:      ; [global]
4054: 7E 65 71       JMP    $6571
lb5_4057:      ; [global]
4057: 7E 64 50       JMP    $6450
lb5_405a:      ; [global]
405A: 7E 66 0C       JMP    $660C
lb5_405d:      ; [global]
405D: 7E 66 68       JMP    $6668
lb5_4060:      ; [global]
4060: 7E 67 34       JMP    $6734
lb5_4063:      ; [global]
4063: 7E 66 F5       JMP    $66F5
lb5_4066:      ; [global]
4066: 7E 57 10       JMP    $5710
lb5_4069:      ; [global]
4069: 7E 68 D4       JMP    $68D4
lb5_406c:      ; [global]
406C: 7E 6C 1E       JMP    $6C1E
lb5_406f:      ; [global]
406F: 7E 69 49       JMP    $6949
lb5_4072:      ; [global]
4072: 7E 5D E3       JMP    $5DE3
lb5_4075:      ; [global]
4075: 7E 5D E3       JMP    $5DE3
lb5_4078:      ; [global]
4078: 7E 56 AC       JMP    $56AC
lb5_407b:      ; [global]
407B: 7E 71 07       JMP    $7107
lb5_407e:      ; [global]
407E: 7E 71 07       JMP    $7107
lb5_4081:      ; [global]
4081: 7E 6A 1F       JMP    $6A1F
lb5_4084:      ; [global]
4084: 7E 70 15       JMP    $7015
lb5_4087:      ; [global]
4087: 7E 70 8E       JMP    $708E
lb5_408a:      ; [global]
408A: 7E 6A C1       JMP    $6AC1
lb5_408d:      ; [global]
408D: 7E 6B 2F       JMP    $6B2F
lb5_4090:      ; [global]
4090: 7E 6B E5       JMP    $6BE5
lb5_4093:      ; [global]
4093: 7E 72 5E       JMP    $725E
lb5_4096:      ; [global]
4096: 7E 6E D7       JMP    $6ED7
lb5_4099:      ; [global]
4099: 7E 6F 1E       JMP    $6F1E
lb5_409c:      ; [global]
409C: 7E 6F 65       JMP    $6F65
lb5_409f:      ; [global]
409F: 7E 6F 83       JMP    $6F83
lb5_40a2:      ; [global]
40A2: 7E 6D 1B       JMP    $6D1B
lb5_40a5:      ; [global]
40A5: 7E 72 07       JMP    $7207
lb5_40a8:      ; [global]
40A8: 7E 72 9E       JMP    $729E
lb5_40ab:      ; [global]
40AB: 7E 68 A6       JMP    $68A6
lb5_40ae:      ; [global]
40AE: 7E 5D E3       JMP    $5DE3
lb5_40b1:      ; [global]
40B1: 7E 72 9E       JMP    $729E
lb5_40b4:      ; [global]
40B4: 7E 72 9F       JMP    $729F
lb5_40b7:      ; [global]
40B7: 7E 6D 65       JMP    $6D65
lb5_40ba:      ; [global]
40BA: 7E 6D D4       JMP    $6DD4
lb5_40bd:      ; [global]
40BD: 7E 6E 5B       JMP    $6E5B
lb5_40c0:      ; [global]
40C0: 7E 43 C3       JMP    $43C3
lb5_40c3:      ; [global]
40C3: 7E 73 60       JMP    $7360
lb5_40c6:      ; [global]
40C6: 7E 75 3B       JMP    $753B
lb5_40c9:      ; [global]
40C9: 7E 75 61       JMP    $7561
lb5_40cc:      ; [global]
40CC: 7E 75 9E       JMP    $759E
lb5_40cf:      ; [global]
40CF: 7E 66 CE       JMP    $66CE
lb5_40d2:      ; [global]
40D2: 7E 77 59       JMP    $7759
lb5_40d5:      ; [global]
40D5: 7E 76 76       JMP    $7676
lb5_40d8:      ; [global]
40D8: 7E 76 31       JMP    $7631
lb5_40db:      ; [global]
40DB: 7E 75 AB       JMP    $75AB
lb5_40de:      ; [global]
40DE: 7E 75 EE       JMP    $75EE
lb5_40e1:      ; [global]
40E1: 7E 76 B4       JMP    $76B4
lb5_40e4:      ; [global]
40E4: 7E 77 00       JMP    $7700
lb5_40e7:      ; [global]
40E7: 7E 77 FF       JMP    $77FF

4100: A6 01          LDA    $1,X                                       
4102: 81 22          CMPA   #$22
4104: 25 02          BCS    $4108
4106: 80 17          SUBA   #$17
4108: 80 02          SUBA   #$02
410A: 48             ASLA
410B: 10 8E 41 21    LDY    #$4121
410F: 10 AE A6       LDY    A,Y		; [bank_address]
4112: 96 36          LDA    $36
4114: 48             ASLA
4115: 48             ASLA
4116: 48             ASLA
4117: 31 A6          LEAY   A,Y
4119: BD 4D B3       JSR    $4DB3
411C: 84 07          ANDA   #$07
411E: A6 A6          LDA    A,Y		; [bank_address]
4120: 39             RTS

4257: 34 40          PSHS   U
4259: 32 7D          LEAS   -$3,S   ; [alloc_locals]
425B: E6 01          LDB    $1,X
425D: C1 22          CMPB   #$22
425F: 25 02          BCS    $4263
4261: C0 17          SUBB   #$17
4263: C0 02          SUBB   #$02
4265: 10 8E 44 F7    LDY    #$44F7
4269: 58             ASLB
426A: 10 AE A5       LDY    B,Y		; [bank_address]
426D: 48             ASLA
426E: 10 AE A6       LDY    A,Y		; [bank_address]
4271: 10 9F 00       STY    $00
4274: 10 BE 0E 4B    LDY    $0E4B
4278: E6 A8 1B       LDB    $1B,Y
427B: C4 3F          ANDB   #$3F
427D: CE 44 E2       LDU    #$44E2
4280: A6 C5          LDA    B,U		; [bank_address]
4282: 26 07          BNE    $428B
4284: BD FC 00       JSR    $FC00
4287: 27 02          BEQ    $428B
4289: 86 10          LDA    #$10
428B: A7 61          STA    $1,S	; [local]
428D: BD 4D B3       JSR    $4DB3
4290: 84 07          ANDA   #$07
4292: AA 61          ORA    $1,S	; [local]
4294: 10 9E 00       LDY    $00
4297: E6 A6          LDB    A,Y		; [bank_address]
4299: E7 88 1C       STB    $1C,X
429C: BD 43 8E       JSR    $438E
429F: BD 42 B1       JSR    $42B1
42A2: BD 43 C3       JSR    $43C3
42A5: A6 88 13       LDA    $13,X
42A8: 8A 20          ORA    #$20
42AA: A7 88 13       STA    $13,X
42AD: 32 63          LEAS   $3,S   ; [free_locals]
42AF: 35 C0          PULS   U,PC

42B1: A6 88 21       LDA    $21,X
42B4: 27 08          BEQ    $42BE
42B6: 10 8E 42 BF    LDY    #jump_table_42bf
42BA: 4A             DECA
42BB: 48             ASLA
42BC: 6E B6          JMP    [A,Y]		; [indirect_jump] [nb_entries=7]
42BE: 39             RTS

jump_table_42bf:
    dc.w	$42CD
	dc.w	$42CE 
	dc.w	$436B
	dc.w	$42CD
	dc.w	$436B
	dc.w	$436B 
	dc.w	$42CE 

42CD: 39             RTS                                                 
42CE: 10 8E 43 51    LDY    #$4351                                     
42D2: A6 01          LDA    $1,X
42D4: 81 22          CMPA   #$22
42D6: 25 02          BCS    $42DA
42D8: 80 17          SUBA   #$17
42DA: 48             ASLA
42DB: E6 A6          LDB    A,Y
42DD: E1 88 1C       CMPB   $1C,X
42E0: 26 06          BNE    $42E8
42E2: 4C             INCA
42E3: A6 A6          LDA    A,Y
42E5: A7 88 1C       STA    $1C,X
42E8: A6 01          LDA    $1,X
42EA: 81 03          CMPA   #$03
42EC: 26 0C          BNE    $42FA
42EE: A6 88 1C       LDA    $1C,X
42F1: 81 0A          CMPA   #$0A
42F3: 26 05          BNE    $42FA
42F5: 86 03          LDA    #$03
42F7: A7 88 1C       STA    $1C,X
42FA: 10 8E 43 2D    LDY    #$432D
42FE: 5F             CLRB
42FF: A6 01          LDA    $1,X
4301: 81 22          CMPA   #$22
4303: 25 02          BCS    $4307
4305: 80 17          SUBA   #$17
4307: 80 02          SUBA   #$02
4309: 27 21          BEQ    $432C
430B: 81 01          CMPA   #$01
430D: 27 08          BEQ    $4317
430F: 81 06          CMPA   #$06
4311: 25 19          BCS    $432C
4313: 80 05          SUBA   #$05
4315: 1F 89          TFR    A,B
4317: 86 06          LDA    #$06
4319: 3D             MUL
431A: 31 AB          LEAY   D,Y
431C: A6 A0          LDA    ,Y+		; [bank_address]
431E: 81 FF          CMPA   #$FF
4320: 27 0A          BEQ    $432C
4322: A1 88 1C       CMPA   $1C,X
4325: 26 F5          BNE    $431C
4327: A6 22          LDA    $2,Y		; [bank_address]
4329: A7 88 1C       STA    $1C,X
432C: 39             RTS

436B: A6 01          LDA    $1,X                                     
436D: 81 22          CMPA   #$22                                     
436F: 25 02          BCS    $4373
4371: 80 17          SUBA   #$17
4373: 80 02          SUBA   #$02
4375: 10 8E 43 83    LDY    #$4383
4379: A6 A6          LDA    A,Y		; [bank_address]
437B: 81 FF          CMPA   #$FF
437D: 27 03          BEQ    $4382
437F: A7 88 1C       STA    $1C,X
4382: 39             RTS

438E: A6 88 21       LDA    $21,X
4391: 26 2B          BNE    $43BE
4393: A6 01          LDA    $1,X
4395: 81 04          CMPA   #$04
4397: 25 25          BCS    $43BE
4399: 81 08          CMPA   #$08
439B: 24 21          BCC    $43BE
439D: 10 BE 0E 4B    LDY    $0E4B
43A1: EC 08          LDD    $8,X
43A3: 10 A3 28       CMPD   $8,Y
43A6: 26 11          BNE    $43B9
43A8: A6 A8 1B       LDA    $1B,Y
43AB: 84 3F          ANDA   #$3F
43AD: 81 04          CMPA   #$04
43AF: 24 08          BCC    $43B9
43B1: 10 8E 43 BF    LDY    #$43BF
43B5: A6 A6          LDA    A,Y		; [bank_address]
43B7: 27 05          BEQ    $43BE
43B9: 86 00          LDA    #$00
43BB: A7 88 1C       STA    $1C,X
43BE: 39             RTS

43C3: A6 01          LDA    $1,X
43C5: 81 02          CMPA   #$02
43C7: 26 57          BNE    $4420
43C9: A6 88 15       LDA    $15,X
43CC: 85 40          BITA   #$40
43CE: 26 50          BNE    $4420
43D0: A6 88 1B       LDA    $1B,X
43D3: 84 3F          ANDA   #$3F
43D5: 81 00          CMPA   #$00
43D7: 26 47          BNE    $4420
43D9: 10 BE 0E 4B    LDY    $0E4B
43DD: A6 A8 1B       LDA    $1B,Y
43E0: 84 3F          ANDA   #$3F
43E2: 81 07          CMPA   #$07
43E4: 26 3A          BNE    $4420
43E6: A6 A8 1E       LDA    $1E,Y
43E9: 81 08          CMPA   #$08
43EB: 26 33          BNE    $4420
43ED: A6 88 15       LDA    $15,X
43F0: 85 40          BITA   #$40
43F2: 26 2C          BNE    $4420
43F4: BD 4D B3       JSR    $4DB3
43F7: 84 03          ANDA   #$03
43F9: 27 25          BEQ    $4420
43FB: A6 88 1B       LDA    $1B,X
43FE: 84 3F          ANDA   #$3F
4400: 81 07          CMPA   #$07
4402: 26 07          BNE    $440B
4404: A6 88 1E       LDA    $1E,X
4407: 81 03          CMPA   #$03
4409: 27 15          BEQ    $4420
440B: 86 07          LDA    #$07
440D: A7 88 1B       STA    $1B,X
4410: 86 03          LDA    #$03
4412: A7 88 1E       STA    $1E,X
4415: BD FC 00       JSR    $FC00
4418: 27 06          BEQ    $4420
441A: A6 03          LDA    $3,X
441C: 8A 80          ORA    #$80
441E: A7 03          STA    $3,X
4420: 39             RTS
4421: A6 88 1B       LDA    $1B,X
4424: 84 3F          ANDA   #$3F
4426: 81 00          CMPA   #$00
4428: 26 2D          BNE    $4457
442A: A6 88 15       LDA    $15,X
442D: 85 40          BITA   #$40
442F: 26 26          BNE    $4457
4431: A6 01          LDA    $1,X
4433: 81 03          CMPA   #$03
4435: 27 04          BEQ    $443B
4437: 81 0A          CMPA   #$0A
4439: 26 1C          BNE    $4457
443B: 86 00          LDA    #$00
443D: BD 44 8B       JSR    $448B
4440: 24 15          BCC    $4457
4442: 96 51          LDA    $51
4444: 84 0E          ANDA   #$0E
4446: 26 0F          BNE    $4457
4448: 86 04          LDA    #$04
444A: A7 88 1E       STA    $1E,X
444D: 86 00          LDA    #$00
444F: A7 88 1D       STA    $1D,X
4452: 86 07          LDA    #$07
4454: A7 88 1B       STA    $1B,X
4457: 39             RTS
4458: A6 88 1B       LDA    $1B,X
445B: 84 3F          ANDA   #$3F
445D: 81 00          CMPA   #$00
445F: 26 29          BNE    $448A
4461: A6 88 15       LDA    $15,X
4464: 85 40          BITA   #$40
4466: 26 22          BNE    $448A
4468: A6 01          LDA    $1,X
446A: 81 03          CMPA   #$03
446C: 26 1C          BNE    $448A
446E: 86 01          LDA    #$01
4470: BD 44 8B       JSR    $448B
4473: 24 E2          BCC    $4457
4475: 96 51          LDA    $51
4477: 84 0E          ANDA   #$0E
4479: 26 0F          BNE    $448A
447B: 86 13          LDA    #$13
447D: A7 88 1E       STA    $1E,X
4480: 86 00          LDA    #$00
4482: A7 88 1D       STA    $1D,X
4485: 86 07          LDA    #$07
4487: A7 88 1B       STA    $1B,X
448A: 39             RTS

448B: 32 7E          LEAS   -$2,S   ; [alloc_locals]
448D: A7 61          STA    $1,S	; [local]
448F: 10 8E 44 E0    LDY    #$44E0
4493: 6F E4          CLR    ,S	; [local]
4495: B6 03 A2       LDA    $03A2
4498: 2A 0B          BPL    $44A5
449A: A6 88 13       LDA    $13,X
449D: 84 01          ANDA   #$01
449F: E6 03          LDB    $3,X
44A1: E1 A6          CMPB   A,Y		; [bank_address]
44A3: 27 12          BEQ    $44B7
44A5: 6C E4          INC    ,S	; [local]
44A7: B6 04 00       LDA    $0400
44AA: 2A 2F          BPL    $44DB
44AC: A6 88 14       LDA    $14,X
44AF: 84 01          ANDA   #$01
44B1: E6 03          LDB    $3,X
44B3: E1 A6          CMPB   A,Y		; [bank_address]
44B5: 26 24          BNE    $44DB
44B7: 31 88 3A       LEAY   $3A,X
44BA: A6 E4          LDA    ,S	; [local]
44BC: 48             ASLA
44BD: 31 A6          LEAY   A,Y
44BF: A6 21          LDA    $1,Y		; [bank_address]
44C1: 81 04          CMPA   #$04
44C3: 24 16          BCC    $44DB
44C5: 6D 61          TST    $1,S	; [local]
44C7: 26 08          BNE    $44D1	
44C9: A6 A4          LDA    ,Y		; [bank_address]
44CB: 81 20          CMPA   #$20
44CD: 24 0C          BCC    $44DB
44CF: 25 06          BCS    $44D7
44D1: A6 A4          LDA    ,Y		; [bank_address]
44D3: 81 14          CMPA   #$14
44D5: 24 04          BCC    $44DB
44D7: 1A 01          ORCC   #$01
44D9: 20 02          BRA    $44DD
44DB: 1C FE          ANDCC  #$FE
44DD: 32 62          LEAS   $2,S   ; [free_locals]
44DF: 39             RTS

4DB3: 34 0C          PSHS   DP,B                                        
4DB5: 4F             CLRA                                               
4DB6: 1F 8B          TFR    A,DP	; direct page 0
4DB8: C6 04          LDB    #$04
4DBA: 0C 43          INC    $43
4DBC: 0C 45          INC    $45
4DBE: 06 44          ROR    $44
4DC0: 06 45          ROR    $45
4DC2: 06 46          ROR    $46
4DC4: 25 06          BCS    $4DCC
4DC6: 96 45          LDA    $45
4DC8: 99 43          ADCA   $43
4DCA: 97 45          STA    $45
4DCC: 5A             DECB
4DCD: 26 EF          BNE    $4DBE
4DCF: 96 44          LDA    $44
4DD1: 99 46          ADCA   $46
4DD3: 97 46          STA    $46
4DD5: 99 45          ADCA   $45
4DD7: 35 8C          PULS   B,DP,PC

4DD9: 34 40          PSHS   U
4DDB: 32 7A          LEAS   -$6,S   ; [alloc_locals]
4DDD: A6 88 13       LDA    $13,X
4DE0: 84 20          ANDA   #$20
4DE2: 10 27 01 0C    LBEQ   $4EF2
4DE6: EC 06          LDD    $6,X
4DE8: 10 83 00 60    CMPD   #$0060
4DEC: 25 10          BCS    $4DFE
4DEE: EC 04          LDD    $4,X
4DF0: 10 83 17 60    CMPD   #$1760
4DF4: 25 08          BCS    $4DFE
4DF6: 10 83 18 F0    CMPD   #$18F0
4DFA: 10 25 00 F4    LBCS   $4EF2
4DFE: FE 0E 4B       LDU    $0E4B
4E01: B6 0E 49       LDA    $0E49
4E04: 81 04          CMPA   #$04
4E06: 25 0F          BCS    $4E17
4E08: E6 C8 31       LDB    $31,U
4E0B: C5 18          BITB   #$18
4E0D: 10 27 00 E1    LBEQ   $4EF2
4E11: 81 08          CMPA   #$08
4E13: 10 24 00 DB    LBCC   $4EF2
4E17: B6 0E 48       LDA    $0E48
4E1A: 81 10          CMPA   #$10
4E1C: 10 25 00 D2    LBCS   $4EF2
4E20: A6 C8 1B       LDA    $1B,U
4E23: 84 3F          ANDA   #$3F
4E25: 10 8E 4E F8    LDY    #$4EF8
4E29: A6 A6          LDA    A,Y		; [bank_address]
4E2B: 10 2B 00 BB    LBMI   $4EEA
4E2F: A7 E4          STA    ,S	; [local]
4E31: EC 48          LDD    $8,U
4E33: A3 08          SUBD   $8,X
4E35: 10 2B 00 B9    LBMI   $4EF2
4E39: ED 62          STD    $2,S	; [local]
4E3B: A6 88 31       LDA    $31,X
4E3E: 84 18          ANDA   #$18
4E40: 10 26 00 A6    LBNE   $4EEA
4E44: A6 C8 31       LDA    $31,U
4E47: 84 18          ANDA   #$18
4E49: 27 36          BEQ    $4E81
4E4B: 6F 64          CLR    $4,S	; [local]
4E4D: EC 62          LDD    $2,S	; [local]
4E4F: 10 83 00 70    CMPD   #$0070
4E53: 10 24 00 9B    LBCC   $4EF2
4E57: 10 83 00 10    CMPD   #$0010
4E5B: 25 02          BCS    $4E5F
4E5D: 6C 64          INC    $4,S	; [local]
4E5F: 10 8E 4F 0D    LDY    #$4F0D
4E63: A6 01          LDA    $1,X
4E65: 81 22          CMPA   #$22
4E67: 25 02          BCS    $4E6B
4E69: 80 17          SUBA   #$17
4E6B: 80 02          SUBA   #$02
4E6D: C6 0C          LDB    #$0C
4E6F: 3D             MUL
4E70: 31 AB          LEAY   D,Y
4E72: A6 64          LDA    $4,S	; [local]
4E74: C6 06          LDB    #$06
4E76: 3D             MUL
4E77: 31 AB          LEAY   D,Y
4E79: A6 88 21       LDA    $21,X
4E7C: A6 A6          LDA    A,Y		; [bank_address]
4E7E: A7 88 1C       STA    $1C,X
4E81: E6 88 1C       LDB    $1C,X
4E84: 10 8E 4F 91    LDY    #$4F91
4E88: A6 01          LDA    $1,X
4E8A: 81 22          CMPA   #$22
4E8C: 25 02          BCS    $4E90
4E8E: 80 17          SUBA   #$17
4E90: 80 02          SUBA   #$02
4E92: 48             ASLA
4E93: 10 AE A6       LDY    A,Y		; [bank_address]
4E96: 6D E4          TST    ,S	; [local]
4E98: 26 07          BNE    $4EA1
4E9A: BD FC 00       JSR    $FC00
4E9D: 27 02          BEQ    $4EA1
4E9F: 6C E4          INC    ,S	; [local]
4EA1: E6 E4          LDB    ,S	; [local]
4EA3: 58             ASLB
4EA4: 10 AE A5       LDY    B,Y	; [bank_address]
4EA7: E6 88 3A       LDB    $3A,X
4EAA: A6 88 14       LDA    $14,X
4EAD: 84 40          ANDA   #$40
4EAF: 27 03          BEQ    $4EB4
4EB1: E6 88 3C       LDB    $3C,X
4EB4: A6 88 1C       LDA    $1C,X
4EB7: E1 A6          CMPB   A,Y	; [bank_address]
4EB9: 24 37          BCC    $4EF2
4EBB: A7 88 1E       STA    $1E,X
4EBE: 81 01          CMPA   #$01
4EC0: 26 15          BNE    $4ED7
4EC2: A6 01          LDA    $1,X
4EC4: 81 04          CMPA   #$04
4EC6: 25 0F          BCS    $4ED7
4EC8: 81 08          CMPA   #$08
4ECA: 24 0B          BCC    $4ED7
4ECC: 86 0C          LDA    #$0C
4ECE: A7 C8 1B       STA    $1B,U
4ED1: AF C8 2D       STX    $2D,U
4ED4: EF 88 2D       STU    $2D,X
4ED7: 86 07          LDA    #$07
4ED9: A7 88 1B       STA    $1B,X
4EDC: A6 88 13       LDA    $13,X
4EDF: 84 DF          ANDA   #$DF
4EE1: A7 88 13       STA    $13,X
4EE4: 32 66          LEAS   $6,S   ; [free_locals]
4EE6: 1A 01          ORCC   #$01
4EE8: 35 C0          PULS   U,PC

4EEA: A6 88 13       LDA    $13,X
4EED: 84 DF          ANDA   #$DF
4EEF: A7 88 13       STA    $13,X
4EF2: 32 66          LEAS   $6,S   ; [free_locals]
4EF4: 1C FE          ANDCC  #$FE
4EF6: 35 C0          PULS   U,PC

510F: 34 76          PSHS   U,Y,X,D
5111: 32 7F          LEAS   -$1,S   ; [alloc_locals]
5113: 10 BE 0E 4B    LDY    $0E4B
5117: A6 88 13       LDA    $13,X
511A: 84 20          ANDA   #$20
511C: 10 26 00 B1    LBNE   $51D1
5120: A6 88 38       LDA    $38,X
5123: 84 40          ANDA   #$40
5125: 10 26 00 9A    LBNE   $51C3
5129: B6 0E 49       LDA    $0E49
512C: 81 1C          CMPA   #$1C
512E: 10 24 00 9F    LBCC   $51D1
5132: B6 0E 48       LDA    $0E48
5135: 81 3C          CMPA   #$3C
5137: 10 24 00 96    LBCC   $51D1
513B: A6 01          LDA    $1,X
513D: 81 22          CMPA   #$22
513F: 25 02          BCS    $5143
5141: 80 17          SUBA   #$17
5143: 80 02          SUBA   #$02
5145: A7 E4          STA    ,S	; [local]
5147: 48             ASLA
5148: 48             ASLA
5149: AB E4          ADDA   ,S	; [local]
514B: AB E4          ADDA   ,S	; [local]
514D: A7 E4          STA    ,S	; [local]
514F: A6 A8 1B       LDA    $1B,Y
5152: 84 3F          ANDA   #$3F
5154: 81 09          CMPA   #$09
5156: 26 0D          BNE    $5165
5158: BD FC 00       JSR    $FC00
515B: 27 74          BEQ    $51D1
515D: A6 E4          LDA    ,S	; [local]
515F: 8B 02          ADDA   #$02
5161: A7 E4          STA    ,S	; [local]
5163: 20 39          BRA    $519E
5165: 81 0A          CMPA   #$0A
5167: 26 0D          BNE    $5176
5169: BD FC 00       JSR    $FC00
516C: 26 63          BNE    $51D1
516E: A6 E4          LDA    ,S	; [local]
5170: 8B 03          ADDA   #$03
5172: A7 E4          STA    ,S	; [local]
5174: 20 28          BRA    $519E
5176: 81 06          CMPA   #$06
5178: 27 04          BEQ    $517E
517A: 81 08          CMPA   #$08
517C: 26 0D          BNE    $518B
517E: BD FC 00       JSR    $FC00
5181: 27 4E          BEQ    $51D1
5183: A6 E4          LDA    ,S	; [local]
5185: 8B 04          ADDA   #$04
5187: A7 E4          STA    ,S	; [local]
5189: 20 13          BRA    $519E
518B: 81 03          CMPA   #$03
518D: 26 08          BNE    $5197
518F: A6 E4          LDA    ,S	; [local]
5191: 8B 05          ADDA   #$05
5193: A7 E4          STA    ,S	; [local]
5195: 20 07          BRA    $519E
5197: BD FC 00       JSR    $FC00
519A: 27 02          BEQ    $519E
519C: 6C E4          INC    ,S	; [local]
519E: A6 E4          LDA    ,S	; [local]
51A0: C6 07          LDB    #$07
51A2: D7 00          STB    $00
51A4: 10 8E 51 D5    LDY    #$51D5
51A8: E6 A6          LDB    A,Y		; [bank_address]
51AA: D7 01          STB    $01
51AC: BD 52 17       JSR    $5217
51AF: 26 0A          BNE    $51BB
51B1: A6 88 38       LDA    $38,X
51B4: 8A 40          ORA    #$40
51B6: A7 88 38       STA    $38,X
51B9: 20 16          BRA    $51D1
51BB: BD 41 00       JSR    $4100
51BE: BD 42 57       JSR    $4257
51C1: 20 0E          BRA    $51D1
51C3: 96 51          LDA    $51
51C5: 84 0E          ANDA   #$0E
51C7: 26 08          BNE    $51D1
51C9: A6 88 38       LDA    $38,X
51CC: 84 BF          ANDA   #$BF
51CE: A7 88 38       STA    $38,X
51D1: 32 61          LEAS   $1,S   ; [free_locals]
51D3: 35 F6          PULS   D,X,Y,U,PC

5217: 34 3C          PSHS   Y,X,DP,B
5219: 96 01          LDA    $01
521B: 9B 55          ADDA   $55
521D: 91 00          CMPA   $00
521F: 25 02          BCS    $5223
5221: 96 00          LDA    $00
5223: 48             ASLA
5224: 48             ASLA
5225: 48             ASLA
5226: 97 00          STA    $00
5228: BD 4D B3       JSR    $4DB3
522B: 84 07          ANDA   #$07
522D: 9A 00          ORA    $00
522F: 10 8E 52 37    LDY    #$5237
5233: A6 A6          LDA    A,Y		; [bank_address]
5235: 35 BC          PULS   B,DP,X,Y,PC

5277: A6 02          LDA    $2,X
5279: 84 7F          ANDA   #$7F
527B: 81 7F          CMPA   #$7F
527D: 27 51          BEQ    $52D0
527F: A6 88 37       LDA    $37,X
5282: 10 8E 52 D1    LDY    #$52D1
5286: 48             ASLA
5287: 10 AE A6       LDY    A,Y		; [bank_address]
528A: 6A 88 19       DEC    $19,X
528D: 2A 41          BPL    $52D0
528F: A6 88 18       LDA    $18,X
5292: E6 88 31       LDB    $31,X
5295: C4 18          ANDB   #$18
5297: 26 04          BNE    $529D
5299: E6 0E          LDB    $E,X
529B: 27 01          BEQ    $529E
529D: 4C             INCA
529E: A1 A4          CMPA   ,Y		; [bank_address]
52A0: 25 01          BCS    $52A3
52A2: 4F             CLRA
52A3: A7 88 18       STA    $18,X
52A6: 48             ASLA
52A7: 4C             INCA
52A8: E6 A6          LDB    A,Y	; [bank_address]
52AA: EA 03          ORB    $3,X
52AC: E7 02          STB    $2,X
52AE: E6 88 37       LDB    $37,X
52B1: C1 02          CMPB   #$02
52B3: 24 15          BCC    $52CA
52B5: E6 88 21       LDB    $21,X
52B8: C1 03          CMPB   #$03
52BA: 27 08          BEQ    $52C4
52BC: C1 05          CMPB   #$05
52BE: 27 04          BEQ    $52C4
52C0: C1 06          CMPB   #$06
52C2: 26 06          BNE    $52CA
52C4: E6 02          LDB    $2,X
52C6: CB 4A          ADDB   #$4A
52C8: E7 02          STB    $2,X
52CA: 4C             INCA
52CB: E6 A6          LDB    A,Y   ; [bank_address]
52CD: E7 88 19       STB    $19,X
52D0: 39             RTS


5321: 34 7E          PSHS   U,Y,X,DP,D
5323: D6 36          LDB    $36
5325: 27 04          BEQ    $532B
5327: C1 03          CMPB   #$03
5329: 26 18          BNE    $5343
532B: 96 29          LDA    $29
532D: 85 01          BITA   #$01
532F: 27 06          BEQ    $5337
5331: 8E 03 A2       LDX    #$03A2
5334: BD 53 45       JSR    $5345
5337: 96 29          LDA    $29
5339: 85 02          BITA   #$02
533B: 27 06          BEQ    $5343
533D: 30 88 5E       LEAX   $5E,X
5340: BD 53 45       JSR    $5345
5343: 35 FE          PULS   D,DP,X,Y,U,PC
5345: 10 8E 53 79    LDY    #$5379
5349: C4 01          ANDB   #$01
534B: 86 0C          LDA    #$0C
534D: 3D             MUL
534E: 31 AB          LEAY   D,Y
5350: 8C 03 A2       CMPX   #$03A2
5353: 27 02          BEQ    $5357
5355: 31 26          LEAY   $6,Y
5357: EC A1          LDD    ,Y++		; [bank_address]
5359: ED 04          STD    $4,X
535B: EC A1          LDD    ,Y++		; [bank_address]
535D: ED 06          STD    $6,X
535F: EC A1          LDD    ,Y++		; [bank_address]
5361: ED 08          STD    $8,X
5363: A6 84          LDA    ,X
5365: 8A C0          ORA    #$C0
5367: A7 84          STA    ,X
5369: 86 35          LDA    #$35
536B: A7 88 1F       STA    $1F,X
536E: 86 00          LDA    #$00
5370: A7 88 1B       STA    $1B,X
5373: 86 01          LDA    #$01
5375: A7 88 37       STA    $37,X
5378: 39             RTS

5391: 32 7C          LEAS   -$4,S   ; [alloc_locals]
5393: EC 08          LDD    $8,X
5395: E3 06          ADDD   $6,X
5397: ED E4          STD    ,S	; [local]
5399: DC 3F          LDD    $3F
539B: C3 00 FF       ADDD   #$00FF
539E: 10 A3 E4       CMPD   ,S	; [local]
53A1: 24 04          BCC    $53A7
53A3: A3 06          SUBD   $6,X
53A5: ED 08          STD    $8,X
53A7: DC 3C          LDD    $3C
53A9: C3 FF E0       ADDD   #$FFE0
53AC: 2B 19          BMI    $53C7
53AE: 10 A3 04       CMPD   $4,X
53B1: 24 17          BCC    $53CA
53B3: C3 01 40       ADDD   #$0140
53B6: 10 A3 04       CMPD   $4,X
53B9: 25 0F          BCS    $53CA
53BB: EC 08          LDD    $8,X
53BD: E3 06          ADDD   $6,X
53BF: C3 00 28       ADDD   #$0028
53C2: 10 93 3F       CMPD   $3F
53C5: 25 03          BCS    $53CA
53C7: 32 64          LEAS   $4,S   ; [free_locals]
53C9: 39             RTS
53CA: 6F 84          CLR    ,X
53CC: A6 88 4C       LDA    $4C,X
53CF: 8A 80          ORA    #$80
53D1: A7 88 4C       STA    $4C,X
53D4: 20 F1          BRA    $53C7
53D6: BD 66 0C       JSR    $660C
53D9: A6 84          LDA    ,X
53DB: 8A 81          ORA    #$81
53DD: A7 84          STA    ,X
53DF: 86 04          LDA    #$04
53E1: A7 88 1B       STA    $1B,X
53E4: 86 40          LDA    #$40
53E6: A7 88 2C       STA    $2C,X
53E9: 86 35          LDA    #$35
53EB: A7 88 1F       STA    $1F,X
53EE: 6F 88 13       CLR    $13,X
53F1: 6F 88 14       CLR    $14,X
53F4: 6F 88 15       CLR    $15,X
53F7: 6F 88 16       CLR    $16,X
53FA: A6 88 21       LDA    $21,X
53FD: 27 15          BEQ    $5414
53FF: 10 AE 88 41    LDY    $41,X
5403: CC 00 00       LDD    #$0000
5406: A7 A4          STA    ,Y
5408: ED A8 1F       STD    $1F,Y
540B: A7 88 16       STA    $16,X
540E: A7 88 21       STA    $21,X
5411: ED 88 41       STD    $41,X
5414: 86 80          LDA    #$80
5416: 8C 03 A2       CMPX   #$03A2
5419: 27 09          BEQ    $5424
541B: B7 09 CE       STA    $09CE
541E: 86 01          LDA    #$01
5420: A7 01          STA    $1,X
5422: 20 07          BRA    $542B
5424: B7 09 AD       STA    $09AD
5427: 86 00          LDA    #$00
5429: A7 01          STA    $1,X
542B: 96 36          LDA    $36
542D: 48             ASLA
542E: 10 8E 54 35    LDY    #jump_table_5435
5432: 6E B6          JMP    [A,Y]		; [indirect_jump] [nb_entries=4]
5434: 39             RTS


jump_table_5435:
     dc.w	$543d
	 dc.w	$5458
	 dc.w	$54e6 
	 dc.w	$5576 

543D: DC 3C          LDD    $3C                                          
543F: C3 00 80       ADDD   #$0080
5442: 10 83 04 00    CMPD   #$0400
5446: 25 03          BCS    $544B
5448: CC 04 40       LDD    #$0440
544B: ED 04          STD    $4,X
544D: CC 01 00       LDD    #$0100
5450: ED 08          STD    $8,X
5452: CC 01 20       LDD    #$0120
5455: ED 06          STD    $6,X
5457: 39             RTS

5458: 32 7F          LEAS   -$1,S   ; [alloc_locals]
545A: 6F E4          CLR    ,S		; [local]
545C: DC 3C          LDD    $3C
545E: 10 83 05 40    CMPD   #$0540
5462: 25 2C          BCS    $5490
5464: 6C E4          INC    ,S	; [local]
5466: 10 83 05 AC    CMPD   #$05AC
546A: 25 24          BCS    $5490
546C: 6C E4          INC    ,S	; [local]
546E: 10 83 06 09    CMPD   #$0609
5472: 25 1C          BCS    $5490
5474: 6C E4          INC    ,S	; [local]
5476: 10 83 06 58    CMPD   #$0658
547A: 25 14          BCS    $5490
547C: 6C E4          INC    ,S	; [local]
547E: 10 83 06 84    CMPD   #$0684
5482: 25 0C          BCS    $5490
5484: 6C E4          INC    ,S	; [local]
5486: DC 3F          LDD    $3F
5488: 10 83 02 F0    CMPD   #$02F0
548C: 25 02          BCS    $5490
548E: 6C E4          INC    ,S	; [local]
5490: A6 E4          LDA    ,S	; [local]
5492: 48             ASLA
5493: 48             ASLA
5494: 10 8E 54 CA    LDY    #$54CA
5498: 31 A6          LEAY   A,Y
549A: DC 3C          LDD    $3C
549C: C3 00 80       ADDD   #$0080
549F: ED 04          STD    $4,X
54A1: 10 83 07 05    CMPD   #$0705
54A5: 25 18          BCS    $54BF
54A7: 10 83 07 26    CMPD   #$0726
54AB: 24 07          BCC    $54B4
54AD: CC 07 26       LDD    #$0726
54B0: ED 04          STD    $4,X
54B2: 20 0B          BRA    $54BF
54B4: 10 83 07 95    CMPD   #$0795
54B8: 25 05          BCS    $54BF
54BA: CC 08 15       LDD    #$0815
54BD: ED 04          STD    $4,X
54BF: EC A1          LDD    ,Y++		; [bank_address]
54C1: ED 06          STD    $6,X
54C3: EC A4          LDD    ,Y		; [bank_address]
54C5: ED 08          STD    $8,X
54C7: 32 61          LEAS   $1,S   ; [free_locals]
54C9: 39             RTS

54E6: 32 7F          LEAS   -$1,S   ; [alloc_locals]
54E8: 6F E4          CLR    ,S	; [local]
54EA: DC 3C          LDD    $3C
54EC: 10 83 0D B6    CMPD   #$0DB6
54F0: 25 28          BCS    $551A
54F2: 6C E4          INC    ,S	; [local]
54F4: 10 83 10 10    CMPD   #$1010
54F8: 25 20          BCS    $551A
54FA: 6C E4          INC    ,S	; [local]
54FC: 10 83 10 C5    CMPD   #$10C5
5500: 25 18          BCS    $551A
5502: 6C E4          INC    ,S	; [local]
5504: 10 83 12 02    CMPD   #$1202
5508: 25 10          BCS    $551A
550A: 10 83 12 D2    CMPD   #$12D2
550E: 24 08          BCC    $5518
5510: DC 3F          LDD    $3F
5512: 10 83 01 60    CMPD   #$0160
5516: 25 02          BCS    $551A
5518: 6C E4          INC    ,S	; [local]
551A: A6 E4          LDA    ,S	; [local]
551C: 48             ASLA
551D: 48             ASLA
551E: 10 8E 55 62    LDY    #$5562
5522: 31 A6          LEAY   A,Y
5524: DC 3C          LDD    $3C
5526: C3 00 80       ADDD   #$0080
5529: ED 04          STD    $4,X
552B: DC 3C          LDD    $3C
552D: 10 83 0C 30    CMPD   #$0C30
5531: 25 24          BCS    $5557
5533: 10 83 0C 80    CMPD   #$0C80
5537: 24 07          BCC    $5540
5539: CC 0C B0       LDD    #$0CB0
553C: ED 04          STD    $4,X
553E: 20 17          BRA    $5557
5540: 10 83 0C B4    CMPD   #$0CB4
5544: 24 07          BCC    $554D
5546: CC 0D 34       LDD    #$0D34
5549: ED 04          STD    $4,X
554B: 20 0A          BRA    $5557
554D: CC 14 30       LDD    #$1430
5550: 10 A3 04       CMPD   $4,X
5553: 24 02          BCC    $5557
5555: ED 04          STD    $4,X
5557: EC A1          LDD    ,Y++		; [bank_address]
5559: ED 06          STD    $6,X
555B: EC A4          LDD    ,Y		; [bank_address]
555D: ED 08          STD    $8,X
555F: 32 61          LEAS   $1,S   ; [free_locals]
5561: 39             RTS

5576: 32 7F          LEAS   -$1,S   ; [alloc_locals]
5578: 6F E4          CLR    ,S	; [local]
557A: DC 3C          LDD    $3C
557C: 10 83 18 70    CMPD   #$1870
5580: 25 02          BCS    $5584
5582: 6C E4          INC    ,S	; [local]
5584: A6 E4          LDA    ,S	; [local]
5586: 48             ASLA
5587: 48             ASLA
5588: 10 8E 55 A0    LDY    #$55A0
558C: 31 A6          LEAY   A,Y
558E: DC 3C          LDD    $3C
5590: C3 00 80       ADDD   #$0080
5593: ED 04          STD    $4,X
5595: EC A1          LDD    ,Y++		; [bank_address]
5597: ED 06          STD    $6,X
5599: EC A4          LDD    ,Y		; [bank_address]
559B: ED 08          STD    $8,X
559D: 32 61          LEAS   $1,S   ; [free_locals]
559F: 39             RTS

55A8: 39             RTS

55A9: 34 40          PSHS   U
55AB: 96 29          LDA    $29
55AD: 84 03          ANDA   #$03
55AF: 81 03          CMPA   #$03
55B1: 26 1F          BNE    $55D2
55B3: EE 88 3C       LDU    $3C,X
55B6: 11 83 04 5E    CMPU   #$045E
55BA: 25 05          BCS    $55C1
55BC: BD 55 D4       JSR    $55D4
55BF: 25 11          BCS    $55D2
55C1: CE 03 A2       LDU    #$03A2
55C4: 96 2A          LDA    $2A
55C6: 84 01          ANDA   #$01
55C8: 88 01          EORA   #$01
55CA: C6 5E          LDB    #$5E
55CC: 3D             MUL
55CD: 33 CB          LEAU   D,U
55CF: BD 55 D4       JSR    $55D4
55D2: 35 C0          PULS   U,PC

55D4: 34 60          PSHS   U,Y
55D6: 32 7A          LEAS   -$6,S   ; [alloc_locals]
55D8: 7D 09 F2       TST    $09F2
55DB: 10 2B 00 B5    LBMI   $5694
55DF: A6 88 1B       LDA    $1B,X
55E2: 84 3F          ANDA   #$3F
55E4: 81 08          CMPA   #$08
55E6: 10 24 00 AA    LBCC   $5694
55EA: 10 8E 56 9A    LDY    #$569A
55EE: A6 A6          LDA    A,Y		; [bank_address]
55F0: 10 26 00 A0    LBNE   $5694
55F4: A6 C4          LDA    ,U
55F6: 84 C0          ANDA   #$C0
55F8: 81 C0          CMPA   #$C0
55FA: 10 26 00 96    LBNE   $5694
55FE: 10 8E 56 F6    LDY    #$56F6
5602: A6 41          LDA    $1,U
5604: 81 02          CMPA   #$02
5606: 10 25 00 8A    LBCS   $5694
560A: 81 22          CMPA   #$22
560C: 25 02          BCS    $5610
560E: 80 17          SUBA   #$17
5610: 80 02          SUBA   #$02
5612: A6 A6          LDA    A,Y				; [bank_address]
5614: 26 7E          BNE    $5694
5616: A6 C8 1B       LDA    $1B,U
5619: 10 8E 56 A2    LDY    #$56A2
561D: 84 3F          ANDA   #$3F
561F: 81 0A          CMPA   #$0A
5621: 24 71          BCC    $5694
5623: A6 A6          LDA    A,Y		; [bank_address]
5625: 26 6D          BNE    $5694
5627: EC 48          LDD    $8,U
5629: 10 A3 08       CMPD   $8,X
562C: 26 66          BNE    $5694
562E: EC 46          LDD    $6,U
5630: A3 06          SUBD   $6,X
5632: 2A 07          BPL    $563B
5634: ED E4          STD    ,S	; [local]
5636: CC 00 00       LDD    #$0000
5639: A3 E4          SUBD   ,S	; [local]
563B: 10 83 00 06    CMPD   #$0006
563F: 24 53          BCC    $5694
5641: 6F 62          CLR    $2,S	; [local]
5643: EC 44          LDD    $4,U
5645: A3 04          SUBD   $4,X
5647: 2A 0B          BPL    $5654
5649: ED E4          STD    ,S	; [local]
564B: 86 80          LDA    #$80
564D: A7 62          STA    $2,S	; [local]
564F: CC 00 00       LDD    #$0000
5652: A3 E4          SUBD   ,S	; [local]
5654: 10 83 00 10    CMPD   #$0010
5658: 24 3A          BCC    $5694
565A: A6 03          LDA    $3,X
565C: A8 43          EORA   $3,U
565E: 26 34          BNE    $5694
5660: A6 03          LDA    $3,X
5662: A8 62          EORA   $2,S	; [local]
5664: 26 2E          BNE    $5694
5666: A6 C8 1B       LDA    $1B,U
5669: 84 3F          ANDA   #$3F
566B: 81 09          CMPA   #$09
566D: 26 11          BNE    $5680
566F: 10 AE C8 2D    LDY    $2D,U
5673: 86 00          LDA    #$00
5675: A7 A8 1B       STA    $1B,Y
5678: A6 A8 16       LDA    $16,Y
567B: 84 F9          ANDA   #$F9
567D: A7 A8 16       STA    $16,Y
5680: 86 09          LDA    #$09
5682: A7 88 1B       STA    $1B,X
5685: 86 0A          LDA    #$0A
5687: A7 C8 1B       STA    $1B,U
568A: AF C8 2D       STX    $2D,U
568D: EF 88 2D       STU    $2D,X
5690: 1A 01          ORCC   #$01
5692: 20 02          BRA    $5696
5694: 1C FE          ANDCC  #$FE
5696: 32 66          LEAS   $6,S   ; [free_locals]
5698: 35 E0          PULS   Y,U,PC

56AC: 34 40          PSHS   U
56AE: A6 84          LDA    ,X
56B0: 84 C0          ANDA   #$C0
56B2: 81 C0          CMPA   #$C0
56B4: 26 3E          BNE    $56F4
56B6: 10 AE 88 3C    LDY    $3C,X
56BA: 10 8C 04 5E    CMPY   #$045E
56BE: 25 34          BCS    $56F4
56C0: A6 A8 1B       LDA    $1B,Y
56C3: 84 3F          ANDA   #$3F
56C5: 81 03          CMPA   #$03
56C7: 26 2B          BNE    $56F4
56C9: 96 2A          LDA    $2A
56CB: 48             ASLA
56CC: 1F 23          TFR    Y,U
56CE: 33 C8 3A       LEAU   $3A,U
56D1: A6 C6          LDA    A,U
56D3: 81 20          CMPA   #$20
56D5: 24 1D          BCC    $56F4
56D7: 81 08          CMPA   #$08
56D9: 24 19          BCC    $56F4
56DB: A6 88 1E       LDA    $1E,X
56DE: 81 00          CMPA   #$00
56E0: 26 12          BNE    $56F4
56E2: 86 07          LDA    #$07
56E4: A7 88 1B       STA    $1B,X
56E7: 86 07          LDA    #$07
56E9: A7 88 1C       STA    $1C,X
56EC: A7 88 1E       STA    $1E,X
56EF: 86 00          LDA    #$00
56F1: A7 88 1D       STA    $1D,X
56F4: 35 C0          PULS   U,PC

570C: 32 6F          LEAS   $F,S   ; [free_locals]
570E: 35 FE          PULS   D,DP,X,Y,U,PC
5710: 34 7E          PSHS   U,Y,X,DP,D
5712: 32 71          LEAS   -$F,S   ; [alloc_locals]
5714: 96 36          LDA    $36
5716: 81 03          CMPA   #$03
5718: 26 F2          BNE    $570C
571A: 96 51          LDA    $51
571C: 84 1E          ANDA   #$1E
571E: 26 EC          BNE    $570C
5720: 86 07          LDA    #$07
5722: 97 00          STA    $00
5724: 86 04          LDA    #$04
5726: 97 01          STA    $01
5728: BD 52 17       JSR    $5217
572B: 4D             TSTA
572C: 26 DE          BNE    $570C
572E: CE 0E 21       LDU    #$0E21
5731: 96 2A          LDA    $2A
5733: A7 61          STA    $1,S	; [local]
5735: 48             ASLA
5736: AB 61          ADDA   $1,S	; [local]
5738: 33 C6          LEAU   A,U
573A: EF 6A          STU    $A,S	; [local]
573C: 33 43          LEAU   $3,U
573E: 86 FF          LDA    #$FF
5740: 8E FF FF       LDX    #$FFFF
5743: 36 12          PSHU   X,A
5745: 8E 03 A2       LDX    #$03A2
5748: 0D 2A          TST    $2A
574A: 27 03          BEQ    $574F
574C: 30 88 5E       LEAX   $5E,X
574F: A6 84          LDA    ,X
5751: 84 C0          ANDA   #$C0
5753: 81 C0          CMPA   #$C0
5755: 26 B5          BNE    $570C
5757: EC 04          LDD    $4,X
5759: 10 83 17 58    CMPD   #$1758
575D: 24 AD          BCC    $570C
575F: 10 83 15 DE    CMPD   #$15DE
5763: 25 A7          BCS    $570C
5765: 6F 68          CLR    $8,S	; [local]
5767: 10 83 16 4C    CMPD   #$164C
576B: 25 0A          BCS    $5777
576D: 6C 68          INC    $8,S	; [local]
576F: 10 83 16 C8    CMPD   #$16C8
5773: 25 02          BCS    $5777
5775: 6C 68          INC    $8,S	; [local]
5777: A6 68          LDA    $8,S	; [local]
5779: 48             ASLA
577A: 48             ASLA
577B: AB 68          ADDA   $8,S	; [local]
577D: AB 68          ADDA   $8,S	; [local]
577F: A7 E4          STA    ,S	; [local]
5781: CE 58 08       LDU    #$5808
5784: A6 68          LDA    $8,S	; [local]
5786: 48             ASLA
5787: EE C6          LDU    A,U		; [bank_address]
5789: 86 06          LDA    #$06
578B: A7 67          STA    $7,S	; [local]
578D: EC C4          LDD    ,U		; [bank_address]
578F: A3 04          SUBD   $4,X
5791: 24 23          BCC    $57B6
5793: ED 62          STD    $2,S	; [local]
5795: CC 00 00       LDD    #$0000
5798: A3 62          SUBD   $2,S	; [local]
579A: ED 62          STD    $2,S	; [local]
579C: 10 83 00 E0    CMPD   #$00E0
57A0: 24 14          BCC    $57B6
57A2: 5F             CLRB
57A3: 10 AE 6A       LDY    $A,S	; [local]
57A6: A6 63          LDA    $3,S	; [local]
57A8: A1 21          CMPA   $1,Y
57AA: 27 02          BEQ    $57AE
57AC: 24 08          BCC    $57B6
57AE: A6 E4          LDA    ,S	; [local]
57B0: A7 A4          STA    ,Y
57B2: A6 63          LDA    $3,S	; [local]
57B4: A7 21          STA    $1,Y
57B6: 33 48          LEAU   $8,U
57B8: 6C E4          INC    ,S	; [local]
57BA: 6A 67          DEC    $7,S	; [local]
57BC: 26 CF          BNE    $578D
57BE: 10 8E 0E 1F    LDY    #$0E1F
57C2: EE 6A          LDU    $A,S	; [local]
57C4: A6 A4          LDA    ,Y
57C6: A7 E4          STA    ,S	; [local]
57C8: A6 21          LDA    $1,Y
57CA: A7 61          STA    $1,S	; [local]
57CC: A6 C4          LDA    ,U
57CE: 81 FF          CMPA   #$FF
57D0: 27 32          BEQ    $5804
57D2: 1F 89          TFR    A,B
57D4: A6 E4          LDA    ,S	; [local]
57D6: 84 C0          ANDA   #$C0
57D8: 27 0A          BEQ    $57E4
57DA: A6 E4          LDA    ,S	; [local]
57DC: 84 1F          ANDA   #$1F
57DE: A7 63          STA    $3,S	; [local]
57E0: E1 63          CMPB   $3,S	; [local]
57E2: 27 20          BEQ    $5804
57E4: A6 61          LDA    $1,S	; [local]
57E6: 84 C0          ANDA   #$C0
57E8: 27 0A          BEQ    $57F4
57EA: A6 61          LDA    $1,S	; [local]
57EC: 84 1F          ANDA   #$1F
57EE: A7 63          STA    $3,S	; [local]
57F0: E1 63          CMPB   $3,S	; [local]
57F2: 27 10          BEQ    $5804
57F4: E7 E4          STB    ,S	; [local]
57F6: 96 2A          LDA    $2A
57F8: E6 A6          LDB    A,Y
57FA: C4 C0          ANDB   #$C0
57FC: 26 06          BNE    $5804
57FE: CA 80          ORB    #$80
5800: EA E4          ORB    ,S	; [local]
5802: E7 A6          STB    A,Y
5804: 32 6F          LEAS   $F,S   ; [free_locals]
5806: 35 FE          PULS   D,DP,X,Y,U,PC

580E: 34 6E          PSHS   U,Y,DP,D
5810: 32 7F          LEAS   -$1,S   ; [alloc_locals]
5812: 8E 07 5B       LDX    #$075B
5815: 6F E4          CLR    ,S	; [local]
5817: A6 84          LDA    ,X
5819: 2B 04          BMI    $581F
581B: 1A 01          ORCC   #$01
581D: 20 0D          BRA    $582C
581F: C6 21          LDB    #$21
5821: 3A             ABX
5822: 6C E4          INC    ,S	; [local]
5824: A6 E4          LDA    ,S	; [local]
5826: 81 10          CMPA   #$10
5828: 25 ED          BCS    $5817
582A: 1C FE          ANDCC  #$FE
582C: 32 61          LEAS   $1,S   ; [free_locals]
582E: 35 EE          PULS   D,DP,Y,U,PC

5830: 96 36          LDA    $36
5832: 48             ASLA
5833: 10 8E 58 39    LDY    #jump_table_5839
5837: 6E B6          JMP    [A,Y]	; [indirect_jump] [nb_entries=4]

jump_table_5839:
	dc.w	$5841
	dc.w	$5851
	dc.w	$585b
	dc.w	$5862

5841: 7F 0E 19       CLR    $0E19                                        
5844: BD 58 87       JSR    $5887
5847: 7C 0E 19       INC    $0E19
584A: BD 58 87       JSR    $5887
584D: BD 59 E2       JSR    $59E2
5850: 39             RTS
5851: BD 5A 4B       JSR    $5A4B
5854: BD 5A 94       JSR    $5A94
5857: BD 5A CB       JSR    $5ACB
585A: 39             RTS
585B: BD 59 E2       JSR    $59E2
585E: BD 5B 92       JSR    $5B92
5861: 39             RTS
5862: 7F 0E 19       CLR    $0E19
5865: BD 58 87       JSR    $5887
5868: 7C 0E 19       INC    $0E19
586B: BD 58 87       JSR    $5887
586E: BD 59 E2       JSR    $59E2
5871: 7F 0E 1E       CLR    $0E1E
5874: BD 59 07       JSR    $5907
5877: 7C 0E 1E       INC    $0E1E
587A: BD 59 07       JSR    $5907
587D: BD 5B 0D       JSR    $5B0D
5880: BD 5C 08       JSR    $5C08
5883: BD 5C 70       JSR    $5C70
5886: 39             RTS
5887: 32 7C          LEAS   -$4,S   ; [alloc_locals]
5889: 96 36          LDA    $36
588B: 27 04          BEQ    $5891
588D: 81 03          CMPA   #$03
588F: 26 43          BNE    $58D4
5891: BD 58 0E       JSR    $580E
5894: 24 3E          BCC    $58D4
5896: 10 8E 0E 13    LDY    #$0E13
589A: B6 0E 19       LDA    $0E19
589D: A6 A6          LDA    A,Y
589F: 85 80          BITA   #$80
58A1: 27 31          BEQ    $58D4
58A3: F6 0E 19       LDB    $0E19
58A6: 84 7F          ANDA   #$7F
58A8: 8A 40          ORA    #$40
58AA: A7 A5          STA    B,Y
58AC: A7 62          STA    $2,S	; [local]
58AE: 10 8E 58 D7    LDY    #$58D7
58B2: 84 0F          ANDA   #$0F
58B4: A7 88 1E       STA    $1E,X
58B7: 48             ASLA
58B8: 48             ASLA
58B9: 48             ASLA
58BA: 31 A6          LEAY   A,Y
58BC: BD 5B E6       JSR    $5BE6
58BF: 6F 88 18       CLR    $18,X
58C2: 10 8E 5E 2A    LDY    #$5E2A
58C6: A6 A4          LDA    ,Y		; [bank_address]
58C8: A7 02          STA    $2,X
58CA: 86 04          LDA    #$04
58CC: A7 88 19       STA    $19,X
58CF: 86 87          LDA    #$87
58D1: BD 66 E6       JSR    flip_screen_if_needed_66e6
58D4: 32 64          LEAS   $4,S   ; [free_locals]
58D6: 39             RTS

5907: 96 36          LDA    $36
5909: 81 03          CMPA   #$03
590B: 26 0B          BNE    $5918
590D: B6 0E 1E       LDA    $0E1E
5910: 10 8E 0E 1F    LDY    #$0E1F
5914: E6 A6          LDB    A,Y
5916: 2B 01          BMI    $5919
5918: 39             RTS
5919: 32 7F          LEAS   -$1,S   ; [alloc_locals]
591B: E7 E4          STB    ,S	; [local]
591D: BD 58 0E       JSR    $580E
5920: 24 2D          BCC    $594F
5922: E6 E4          LDB    ,S	; [local]
5924: C4 1F          ANDB   #$1F
5926: CA 40          ORB    #$40
5928: E7 A6          STB    A,Y
592A: C4 1F          ANDB   #$1F
592C: E7 88 1E       STB    $1E,X
592F: 10 8E 59 52    LDY    #$5952
5933: 58             ASLB
5934: 58             ASLB
5935: 58             ASLB
5936: 4F             CLRA
5937: 31 AB          LEAY   D,Y
5939: BD 5B E6       JSR    $5BE6
593C: 86 02          LDA    #$02
593E: A7 02          STA    $2,X
5940: 86 02          LDA    #$02
5942: A7 88 19       STA    $19,X
5945: 6F 88 18       CLR    $18,X
5948: 6F 03          CLR    $3,X
594A: 86 8B          LDA    #$8B
594C: BD 66 E6       JSR    flip_screen_if_needed_66e6
594F: 32 61          LEAS   $1,S   ; [free_locals]
5951: 39             RTS

59E2: B6 0E 17       LDA    $0E17
59E5: 2B 05          BMI    $59EC
59E7: 85 40          BITA   #$40
59E9: 26 13          BNE    $59FE
59EB: 39             RTS
59EC: BD 58 0E       JSR    $580E
59EF: 24 FA          BCC    $59EB
59F1: A6 88 16       LDA    $16,X
59F4: 84 7F          ANDA   #$7F
59F6: A7 88 16       STA    $16,X
59F9: 6F 88 18       CLR    $18,X
59FC: 20 12          BRA    $5A10
59FE: BD 58 0E       JSR    $580E
5A01: 24 E8          BCC    $59EB
5A03: A6 88 16       LDA    $16,X
5A06: 8A 80          ORA    #$80
5A08: A7 88 16       STA    $16,X
5A0B: 86 01          LDA    #$01
5A0D: A7 88 18       STA    $18,X
5A10: A6 88 18       LDA    $18,X
5A13: 48             ASLA
5A14: 10 8E 5E B7    LDY    #$5EB7
5A18: E6 A6          LDB    A,Y		; [bank_address]
5A1A: E7 02          STB    $2,X
5A1C: 4C             INCA
5A1D: E6 A6          LDB    A,Y		; [bank_address]
5A1F: E7 88 19       STB    $19,X
5A22: B6 0E 17       LDA    $0E17
5A25: 84 0F          ANDA   #$0F
5A27: 1F 89          TFR    A,B
5A29: 8A 20          ORA    #$20
5A2B: B7 0E 17       STA    $0E17
5A2E: 10 8E 5A 3B    LDY    #$5A3B
5A32: 58             ASLB
5A33: 58             ASLB
5A34: 58             ASLB
5A35: 31 A5          LEAY   B,Y
5A37: BD 5B E6       JSR    $5BE6
5A3A: 39             RTS

5A4B: 96 36          LDA    $36
5A4D: 81 01          CMPA   #$01
5A4F: 26 3A          BNE    $5A8B
5A51: 96 38          LDA    $38
5A53: 27 36          BEQ    $5A8B
5A55: DC 3C          LDD    $3C
5A57: 10 83 06 80    CMPD   #$0680
5A5B: 25 2E          BCS    $5A8B
5A5D: B6 0E 33       LDA    $0E33
5A60: 85 08          BITA   #$08
5A62: 26 27          BNE    $5A8B
5A64: BD 58 0E       JSR    $580E
5A67: 24 22          BCC    $5A8B
5A69: 6F 88 18       CLR    $18,X
5A6C: 10 8E 5A 8C    LDY    #$5A8C
5A70: BD 5B E6       JSR    $5BE6
5A73: 10 8E 5F 3D    LDY    #$5F3D
5A77: A6 88 18       LDA    $18,X
5A7A: C6 00          LDB    #$00
5A7C: E7 02          STB    $2,X
5A7E: C6 04          LDB    #$04
5A80: E7 88 19       STB    $19,X
5A83: B6 0E 33       LDA    $0E33
5A86: 8A 08          ORA    #$08
5A88: B7 0E 33       STA    $0E33
5A8B: 39             RTS

5A94: 96 36          LDA    $36
5A96: 81 01          CMPA   #$01
5A98: 26 09          BNE    $5AA3
5A9A: 96 38          LDA    $38
5A9C: 27 05          BEQ    $5AA3
5A9E: B6 0E 1A       LDA    $0E1A
5AA1: 2A 01          BPL    $5AA4
5AA3: 39             RTS
5AA4: BD 58 0E       JSR    $580E
5AA7: 24 FA          BCC    $5AA3
5AA9: B6 0E 1A       LDA    $0E1A
5AAC: 8A 80          ORA    #$80
5AAE: B7 0E 1A       STA    $0E1A
5AB1: BF 0E 1B       STX    $0E1B
5AB4: 10 8E 5A C3    LDY    #$5AC3
5AB8: BD 5B E6       JSR    $5BE6
5ABB: 86 00          LDA    #$00
5ABD: A7 02          STA    $2,X
5ABF: 6F 88 1B       CLR    $1B,X
5AC2: 39             RTS

5ACB: 96 36          LDA    $36
5ACD: 81 01          CMPA   #$01
5ACF: 26 11          BNE    $5AE2
5AD1: 96 38          LDA    $38
5AD3: 27 0D          BEQ    $5AE2
5AD5: B6 0E 1D       LDA    $0E1D
5AD8: 2B 08          BMI    $5AE2
5ADA: DC 3C          LDD    $3C
5ADC: 10 83 05 80    CMPD   #$0580
5AE0: 24 01          BCC    $5AE3
5AE2: 39             RTS
5AE3: BD 58 0E       JSR    $580E
5AE6: 24 FA          BCC    $5AE2
5AE8: B6 0E 1D       LDA    $0E1D
5AEB: 8A 80          ORA    #$80
5AED: B7 0E 1D       STA    $0E1D
5AF0: 10 8E 5B 05    LDY    #$5B05
5AF4: BD 5B E6       JSR    $5BE6
5AF7: 86 00          LDA    #$00
5AF9: A7 02          STA    $2,X
5AFB: 6F 88 18       CLR    $18,X
5AFE: 6F 88 19       CLR    $19,X
5B01: 6F 88 1B       CLR    $1B,X
5B04: 39             RTS

5B0D: 32 7F          LEAS   -$1,S   ; [alloc_locals]
5B0F: 96 36          LDA    $36
5B11: 81 03          CMPA   #$03
5B13: 26 08          BNE    $5B1D
5B15: DC 3C          LDD    $3C
5B17: 10 83 16 10    CMPD   #$1610
5B1B: 24 03          BCC    $5B20
5B1D: 32 61          LEAS   $1,S   ; [free_locals]
5B1F: 39             RTS
5B20: B6 0E 32       LDA    $0E32
5B23: 84 07          ANDA   #$07
5B25: 81 07          CMPA   #$07
5B27: 27 F4          BEQ    $5B1D
5B29: 5F             CLRB
5B2A: 44             LSRA
5B2B: 24 05          BCC    $5B32
5B2D: 5C             INCB
5B2E: 44             LSRA
5B2F: 24 01          BCC    $5B32
5B31: 5C             INCB
5B32: E7 E4          STB    ,S	; [local]
5B34: 10 8E 5B 74    LDY    #$5B74
5B38: 58             ASLB
5B39: 58             ASLB
5B3A: 58             ASLB
5B3B: EB E4          ADDB   ,S	; [local]
5B3D: EB E4          ADDB   ,S	; [local]
5B3F: 31 A5          LEAY   B,Y
5B41: EC A1          LDD    ,Y++	; [bank_address]
5B43: 10 93 3C       CMPD   $3C
5B46: 24 23          BCC    $5B6B
5B48: BD 58 0E       JSR    $580E
5B4B: 24 1E          BCC    $5B6B
5B4D: BD 5B E6       JSR    $5BE6
5B50: 6F 88 1B       CLR    $1B,X
5B53: 10 8E 5B 6E    LDY    #$5B6E
5B57: E6 E4          LDB    ,S	; [local]
5B59: A6 A5          LDA    B,Y	; [bank_address]
5B5B: A7 03          STA    $3,X
5B5D: 8A 00          ORA    #$00
5B5F: A7 02          STA    $2,X
5B61: B6 0E 32       LDA    $0E32
5B64: 31 A5          LEAY   B,Y		; [bank_address]
5B66: AA 23          ORA    $3,Y	; [bank_address]
5B68: B7 0E 32       STA    $0E32
5B6B: 32 61          LEAS   $1,S   ; [free_locals]
5B6D: 39             RTS

5B92: 32 7F          LEAS   -$1,S   ; [alloc_locals]
5B94: 86 80          LDA    #$80
5B96: A7 E4          STA    ,S	; [local]
5B98: 96 36          LDA    $36
5B9A: 81 02          CMPA   #$02
5B9C: 26 31          BNE    $5BCF
5B9E: B6 0E 33       LDA    $0E33
5BA1: 84 C0          ANDA   #$C0
5BA3: 81 C0          CMPA   #$C0
5BA5: 27 28          BEQ    $5BCF
5BA7: 10 8E 5B D2    LDY    #$5BD2
5BAB: 48             ASLA
5BAC: 24 06          BCC    $5BB4
5BAE: 31 2A          LEAY   $A,Y
5BB0: 86 40          LDA    #$40
5BB2: A7 E4          STA    ,S	; [local]
5BB4: DC 3C          LDD    $3C
5BB6: 10 A3 A1       CMPD   ,Y++
5BB9: 25 14          BCS    $5BCF
5BBB: BD 58 0E       JSR    $580E
5BBE: 24 0F          BCC    $5BCF
5BC0: BD 5B E6       JSR    $5BE6
5BC3: 86 03          LDA    #$03
5BC5: A7 02          STA    $2,X
5BC7: B6 0E 33       LDA    $0E33
5BCA: AA E4          ORA    ,S	; [local]
5BCC: B7 0E 33       STA    $0E33
5BCF: 32 61          LEAS   $1,S   ; [free_locals]
5BD1: 39             RTS

5BE6: EC A1          LDD    ,Y++		; [bank_address]
5BE8: ED 04          STD    $4,X
5BEA: EC A1          LDD    ,Y++		; [bank_address]
5BEC: ED 06          STD    $6,X
5BEE: EC A1          LDD    ,Y++		; [bank_address]
5BF0: ED 08          STD    $8,X
5BF2: A6 A0          LDA    ,Y+		; [bank_address]
5BF4: A7 01          STA    $1,X
5BF6: A6 A4          LDA    ,Y		; [bank_address]
5BF8: A7 88 17       STA    $17,X
5BFB: A6 84          LDA    ,X
5BFD: 8A 80          ORA    #$80
5BFF: A7 84          STA    ,X
5C01: 6F 88 1B       CLR    $1B,X
5C04: 39             RTS
5C05: 32 61          LEAS   $1,S   ; [free_locals]
5C07: 39             RTS

5C08: 32 7F          LEAS   -$1,S   ; [alloc_locals]
5C0A: 96 36          LDA    $36
5C0C: 81 03          CMPA   #$03
5C0E: 26 F5          BNE    $5C05
5C10: B6 0E 36       LDA    $0E36
5C13: 84 03          ANDA   #$03
5C15: 81 03          CMPA   #$03
5C17: 27 EC          BEQ    $5C05
5C19: 5F             CLRB
5C1A: 44             LSRA
5C1B: 24 01          BCC    $5C1E
5C1D: 5C             INCB
5C1E: E7 E4          STB    ,S	; [local]
5C20: 10 8E 5C 5C    LDY    #$5C5C
5C24: 58             ASLB
5C25: 58             ASLB
5C26: 58             ASLB
5C27: EB E4          ADDB   ,S	; [local]
5C29: EB E4          ADDB   ,S	; [local]
5C2B: 31 A5          LEAY   B,Y
5C2D: EC A1          LDD    ,Y++		; [bank_address]
5C2F: 10 93 3C       CMPD   $3C
5C32: 24 D1          BCC    $5C05
5C34: BD 58 0E       JSR    $580E
5C37: 24 CC          BCC    $5C05
5C39: BD 5B E6       JSR    $5BE6
5C3C: 10 8E 5C 53    LDY    #$5C53
5C40: E6 E4          LDB    ,S	; [local]
5C42: A6 A5          LDA    B,Y		; [bank_address]
5C44: A7 02          STA    $2,X
5C46: B6 0E 36       LDA    $0E36
5C49: 31 A5          LEAY   B,Y
5C4B: AA 22          ORA    $2,Y		; [bank_address]
5C4D: B7 0E 36       STA    $0E36
5C50: 32 61          LEAS   $1,S   ; [free_locals]
5C52: 39             RTS

5C70: B6 0E 33       LDA    $0E33
5C73: 85 10          BITA   #$10
5C75: 26 23          BNE    $5C9A
5C77: DC 3C          LDD    $3C
5C79: 10 83 1A 70    CMPD   #$1A70
5C7D: 25 1B          BCS    $5C9A
5C7F: BD 58 0E       JSR    $580E
5C82: 24 16          BCC    $5C9A
5C84: B6 0E 33       LDA    $0E33
5C87: 8A 10          ORA    #$10
5C89: B7 0E 33       STA    $0E33
5C8C: 10 8E 5C 9B    LDY    #$5C9B
5C90: BD 5B E6       JSR    $5BE6
5C93: 86 5C          LDA    #$5C
5C95: A7 02          STA    $2,X
5C97: BF 0E 53       STX    $0E53
5C9A: 39             RTS

5CA3: 10 8E 5C AF    LDY    #jump_table_5caf
5CA7: A6 88 1B       LDA    $1B,X
5CAA: 84 7F          ANDA   #$7F
5CAC: 48             ASLA
5CAD: 6E B6          JMP    [A,Y]	; [indirect_jump] [nb_entries=5]

jump_table_5caf:
     dc.w	$5CB9 
	 dc.w	$5CC6 
	 dc.w	$5D34 
	 dc.w	$5D57 
	 dc.w	$5D97
 

5CB9: B6 0A EC       LDA    $0AEC
5CBC: 84 04          ANDA   #$04
5CBE: 27 05          BEQ    $5CC5
5CC0: 86 01          LDA    #$01
5CC2: A7 88 1B       STA    $1B,X
5CC5: 39             RTS
5CC6: 34 40          PSHS   U
5CC8: CE 04 5E       LDU    #$045E
5CCB: C6 08          LDB    #$08
5CCD: 86 55          LDA    #$55
5CCF: 3D             MUL
5CD0: 33 CB          LEAU   D,U
5CD2: 86 83          LDA    #$83
5CD4: A7 42          STA    $2,U
5CD6: 86 80          LDA    #$80
5CD8: A7 43          STA    $3,U
5CDA: A6 88 1B       LDA    $1B,X
5CDD: 2B 0A          BMI    $5CE9
5CDF: 8A 80          ORA    #$80
5CE1: A7 88 1B       STA    $1B,X
5CE4: 86 10          LDA    #$10
5CE6: B7 38 0E       STA    $380E
5CE9: EC 08          LDD    $8,X
5CEB: C3 00 02       ADDD   #$0002
5CEE: ED 08          STD    $8,X
5CF0: 10 83 01 C0    CMPD   #$01C0
5CF4: 25 10          BCS    $5D06
5CF6: CC 01 C0       LDD    #$01C0
5CF9: ED 08          STD    $8,X
5CFB: 86 02          LDA    #$02
5CFD: A7 88 1B       STA    $1B,X
5D00: A6 C4          LDA    ,U
5D02: 8A 40          ORA    #$40
5D04: A7 C4          STA    ,U
5D06: A6 C4          LDA    ,U
5D08: 8A 81          ORA    #$81
5D0A: A7 C4          STA    ,U
5D0C: EC 04          LDD    $4,X
5D0E: C3 00 00       ADDD   #$0000
5D11: ED 44          STD    $4,U
5D13: EC 06          LDD    $6,X
5D15: C3 FF FC       ADDD   #$FFFC
5D18: ED 46          STD    $6,U
5D1A: EC 08          LDD    $8,X
5D1C: C3 00 00       ADDD   #$0000
5D1F: ED 48          STD    $8,U
5D21: A6 88 1B       LDA    $1B,X
5D24: 81 02          CMPA   #$02
5D26: 26 0A          BNE    $5D32
5D28: C6 FF          LDB    #$FF
5D2A: 5A             DECB
5D2B: 26 FD          BNE    $5D2A
5D2D: 86 FE          LDA    #$FE
5D2F: B7 38 0E       STA    $380E
5D32: 35 C0          PULS   U,PC
5D34: A6 88 1B       LDA    $1B,X
5D37: 2B 0F          BMI    $5D48
5D39: 8A 80          ORA    #$80
5D3B: A7 88 1B       STA    $1B,X
5D3E: C6 FF          LDB    #$FF
5D40: 5A             DECB
5D41: 26 FD          BNE    $5D40
5D43: 86 03          LDA    #$03
5D45: BD 66 E6       JSR    flip_screen_if_needed_66e6
5D48: B6 0E 1A       LDA    $0E1A
5D4B: 84 03          ANDA   #$03
5D4D: 81 03          CMPA   #$03
5D4F: 26 05          BNE    $5D56
5D51: 86 03          LDA    #$03
5D53: A7 88 1B       STA    $1B,X
5D56: 39             RTS
5D57: A6 88 1B       LDA    $1B,X
5D5A: 2B 0A          BMI    $5D66
5D5C: 8A 80          ORA    #$80
5D5E: A7 88 1B       STA    $1B,X
5D61: 86 10          LDA    #$10
5D63: BD 66 E6       JSR    flip_screen_if_needed_66e6
5D66: EC 08          LDD    $8,X
5D68: 83 00 02       SUBD   #$0002
5D6B: ED 08          STD    $8,X
5D6D: 10 83 01 00    CMPD   #$0100
5D71: 24 1B          BCC    $5D8E
5D73: CC 01 00       LDD    #$0100
5D76: ED 08          STD    $8,X
5D78: 86 04          LDA    #$04
5D7A: A7 88 1B       STA    $1B,X
5D7D: B6 0E 1A       LDA    $0E1A
5D80: 8A 04          ORA    #$04
5D82: B7 0E 1A       STA    $0E1A
5D85: 86 FE          LDA    #$FE
5D87: BD 66 E6       JSR    flip_screen_if_needed_66e6
5D8A: 86 02          LDA    #$02
5D8C: 97 4B          STA    $4B
5D8E: EC 08          LDD    $8,X
5D90: FD 03 AA       STD    $03AA
5D93: FD 04 08       STD    $0408
5D96: 39             RTS
5D97: EC 04          LDD    $4,X
5D99: C3 00 40       ADDD   #$0040
5D9C: 10 93 3C       CMPD   $3C
5D9F: 24 0B          BCC    $5DAC
5DA1: CC 00 00       LDD    #$0000
5DA4: A7 84          STA    ,X
5DA6: B7 0E 1A       STA    $0E1A
5DA9: FD 0E 1B       STD    $0E1B
5DAC: 39             RTS
5DAD: 10 8E 5D E0    LDY    #$5DE0
5DB1: A6 88 1B       LDA    $1B,X
5DB4: 2B 03          BMI    $5DB9
5DB6: BD FE 64       JSR    $FE64
5DB9: A6 88 18       LDA    $18,X
5DBC: A6 A6          LDA    A,Y		; [bank_address]
5DBE: A7 02          STA    $2,X
5DC0: 6C 88 19       INC    $19,X
5DC3: A6 88 19       LDA    $19,X
5DC6: 81 08          CMPA   #$08
5DC8: 25 0D          BCS    $5DD7
5DCA: 6C 88 18       INC    $18,X
5DCD: A6 88 18       LDA    $18,X
5DD0: 81 03          CMPA   #$03
5DD2: 25 03          BCS    $5DD7
5DD4: 6F 88 18       CLR    $18,X
5DD7: 96 36          LDA    $36
5DD9: 81 01          CMPA   #$01
5DDB: 27 02          BEQ    $5DDF
5DDD: 6F 84          CLR    ,X
5DDF: 39             RTS

5DE3: 39             RTS
5DE4: 6A 88 19       DEC    $19,X
5DE7: 26 3A          BNE    $5E23
5DE9: 10 8E 5E 2A    LDY    #$5E2A
5DED: 6C 88 18       INC    $18,X
5DF0: A6 88 18       LDA    $18,X
5DF3: 81 04          CMPA   #$04
5DF5: 25 23          BCS    $5E1A
5DF7: 10 8E 0E 13    LDY    #$0E13
5DFB: A6 A4          LDA    ,Y
5DFD: 84 0F          ANDA   #$0F
5DFF: A1 88 1E       CMPA   $1E,X
5E02: 27 04          BEQ    $5E08
5E04: A6 A4          LDA    ,Y
5E06: 84 0F          ANDA   #$0F
5E08: A7 A4          STA    ,Y
5E0A: 10 8E 5E 24    LDY    #$5E24
5E0E: F6 0E 15       LDB    $0E15
5E11: EA A6          ORB    A,Y
5E13: F7 0E 15       STB    $0E15
5E16: 6F 84          CLR    ,X
5E18: 20 09          BRA    $5E23
5E1A: A6 A6          LDA    A,Y		; [bank_address]
5E1C: A7 02          STA    $2,X
5E1E: 86 04          LDA    #$04
5E20: A7 88 19       STA    $19,X
5E23: 39             RTS

5E2E: 6A 88 19       DEC    $19,X
5E31: 26 2E          BNE    $5E61
5E33: 6C 88 18       INC    $18,X
5E36: A6 88 18       LDA    $18,X
5E39: 81 0B          CMPA   #$0B
5E3B: 25 15          BCS    $5E52
5E3D: 6F 84          CLR    ,X
5E3F: 10 8E 0E 1F    LDY    #$0E1F
5E43: A6 A4          LDA    ,Y
5E45: 84 1F          ANDA   #$1F
5E47: A1 88 1E       CMPA   $1E,X
5E4A: 27 02          BEQ    $5E4E
5E4C: 31 21          LEAY   $1,Y
5E4E: 6F A4          CLR    ,Y
5E50: 20 0F          BRA    $5E61
5E52: 10 8E 5E 62    LDY    #$5E62
5E56: 48             ASLA
5E57: E6 A6          LDB    A,Y		; [bank_address]
5E59: E7 02          STB    $2,X
5E5B: 4C             INCA
5E5C: E6 A6          LDB    A,Y		; [bank_address]
5E5E: E7 88 19       STB    $19,X
5E61: 39             RTS

5E78: 6A 88 19       DEC    $19,X
5E7B: 26 26          BNE    $5EA3
5E7D: A6 88 16       LDA    $16,X
5E80: 2B 0C          BMI    $5E8E
5E82: 6C 88 18       INC    $18,X
5E85: A6 88 18       LDA    $18,X
5E88: 81 02          CMPA   #$02
5E8A: 25 18          BCS    $5EA4
5E8C: 24 05          BCC    $5E93
5E8E: 6A 88 18       DEC    $18,X
5E91: 2A 11          BPL    $5EA4
5E93: 6F 84          CLR    ,X
5E95: A6 88 16       LDA    $16,X
5E98: 2A 04          BPL    $5E9E
5E9A: 7F 0E 18       CLR    $0E18
5E9D: 39             RTS
5E9E: 86 01          LDA    #$01
5EA0: B7 0E 18       STA    $0E18
5EA3: 39             RTS
5EA4: 10 8E 5E B7    LDY    #$5EB7
5EA8: A6 88 18       LDA    $18,X
5EAB: 48             ASLA
5EAC: E6 A6          LDB    A,Y		; [bank_address]
5EAE: E7 02          STB    $2,X
5EB0: 4C             INCA
5EB1: E6 A6          LDB    A,Y		; [bank_address]
5EB3: E7 88 19       STB    $19,X
5EB6: 39             RTS

5EBB: B6 0E 16       LDA    $0E16
5EBE: 1F 89          TFR    A,B
5EC0: 84 20          ANDA   #$20
5EC2: 26 2F          BNE    $5EF3
5EC4: C5 18          BITB   #$18
5EC6: 27 2A          BEQ    $5EF2
5EC8: B6 0E 16       LDA    $0E16
5ECB: 85 10          BITA   #$10
5ECD: 27 0A          BEQ    $5ED9
5ECF: A6 88 16       LDA    $16,X
5ED2: 84 7F          ANDA   #$7F
5ED4: A7 88 16       STA    $16,X
5ED7: 20 08          BRA    $5EE1
5ED9: A6 88 16       LDA    $16,X
5EDC: 8A 80          ORA    #$80
5EDE: A7 88 16       STA    $16,X
5EE1: B6 0E 16       LDA    $0E16
5EE4: 84 C7          ANDA   #$C7
5EE6: 8A 20          ORA    #$20
5EE8: B7 0E 16       STA    $0E16
5EEB: 86 11          LDA    #$11
5EED: BD 66 E6       JSR    flip_screen_if_needed_66e6
5EF0: 20 01          BRA    $5EF3
5EF2: 39             RTS
5EF3: 6A 88 19       DEC    $19,X
5EF6: 26 FA          BNE    $5EF2
5EF8: A6 88 16       LDA    $16,X
5EFB: 2B 1D          BMI    $5F1A
5EFD: A6 88 18       LDA    $18,X
5F00: 81 04          CMPA   #$04
5F02: 27 28          BEQ    $5F2C
5F04: 6C 88 18       INC    $18,X
5F07: A6 88 18       LDA    $18,X
5F0A: 81 04          CMPA   #$04
5F0C: 25 1E          BCS    $5F2C
5F0E: B6 0E 16       LDA    $0E16
5F11: 84 07          ANDA   #$07
5F13: 8A 80          ORA    #$80
5F15: B7 0E 16       STA    $0E16
5F18: 20 12          BRA    $5F2C
5F1A: A6 88 18       LDA    $18,X
5F1D: 27 0D          BEQ    $5F2C
5F1F: 6A 88 18       DEC    $18,X
5F22: 26 08          BNE    $5F2C
5F24: B6 0E 16       LDA    $0E16
5F27: 84 07          ANDA   #$07
5F29: B7 0E 16       STA    $0E16
5F2C: 10 8E 5F 3D    LDY    #$5F3D
5F30: A6 88 18       LDA    $18,X
5F33: E6 A6          LDB    A,Y		; [bank_address]
5F35: E7 02          STB    $2,X
5F37: C6 04          LDB    #$04
5F39: E7 88 19       STB    $19,X
5F3C: 39             RTS

5F42: 10 8E 5F 4F    LDY    #jump_table_5f4f
5F46: A6 88 1B       LDA    $1B,X
5F49: 84 01          ANDA   #$01
5F4B: 48             ASLA
5F4C: 6E B6          JMP    [A,Y]; [indirect_jump] [nb_entries=2]
5F4E: 39             RTS

jump_table_5f4f:
     dc.w	$5f53 
	 dc.w	$5fc6

5F53: 32 71          LEAS   -$F,S                                        ; [alloc_locals]
5F55: 6F 62          CLR    $2,S 	; [local]                                     
5F57: 6F 65          CLR    $5,S 	; [local]                                     
5F59: DC 3C          LDD    $3C                                       
5F5B: 10 83 16 3E    CMPD   #$163E
5F5F: 25 62          BCS    $5FC3
5F61: 10 83 18 72    CMPD   #$1872
5F65: 24 5C          BCC    $5FC3
5F67: EC 04          LDD    $4,X
5F69: B3 03 A6       SUBD   $03A6
5F6C: ED E4          STD    ,S	; [local]
5F6E: 2A 0B          BPL    $5F7B
5F70: CC 00 00       LDD    #$0000
5F73: A3 E4          SUBD   ,S	; [local]
5F75: ED E4          STD    ,S	; [local]
5F77: 86 80          LDA    #$80
5F79: A7 62          STA    $2,S	; [local]
5F7B: EC 04          LDD    $4,X
5F7D: B3 04 04       SUBD   $0404
5F80: ED 63          STD    $3,S	; [local]
5F82: 2A 0B          BPL    $5F8F
5F84: CC 00 00       LDD    #$0000
5F87: A3 63          SUBD   $3,S	; [local]
5F89: ED 63          STD    $3,S	; [local]
5F8B: 86 80          LDA    #$80
5F8D: A7 65          STA    $5,S	; [local]
5F8F: B6 03 A2       LDA    $03A2
5F92: 2A 10          BPL    $5FA4
5F94: A6 03          LDA    $3,X
5F96: A8 62          EORA   $2,S	; [local]
5F98: 26 0A          BNE    $5FA4
5F9A: EC E4          LDD    ,S	; [local]
5F9C: 10 83 00 80    CMPD   #$0080
5FA0: 24 02          BCC    $5FA4
5FA2: 25 13          BCS    $5FB7
5FA4: B6 04 00       LDA    $0400
5FA7: 2A 1A          BPL    $5FC3
5FA9: A6 03          LDA    $3,X
5FAB: A8 65          EORA   $5,S	; [local]
5FAD: 26 14          BNE    $5FC3
5FAF: EC 63          LDD    $3,S	; [local]
5FB1: 10 83 00 80    CMPD   #$0080
5FB5: 24 0C          BCC    $5FC3
5FB7: BD 4D B3       JSR    $4DB3
5FBA: 84 1B          ANDA   #$1B
5FBC: 26 05          BNE    $5FC3
5FBE: 86 01          LDA    #$01
5FC0: A7 88 1B       STA    $1B,X
5FC3: 32 6F          LEAS   $F,S   ; [free_locals]
5FC5: 39             RTS

5FC6: 10 8E 5F FE    LDY    #$5FFE
5FCA: A6 88 1B       LDA    $1B,X
5FCD: 2B 0E          BMI    $5FDD
5FCF: BD FE 64       JSR    $FE64
5FD2: A6 A0          LDA    ,Y+		; [bank_address]
5FD4: AA 03          ORA    $3,X
5FD6: A7 02          STA    $2,X
5FD8: A6 A4          LDA    ,Y		; [bank_address]
5FDA: A7 88 19       STA    $19,X
5FDD: 6A 88 19       DEC    $19,X
5FE0: 26 17          BNE    $5FF9
5FE2: 6C 88 18       INC    $18,X
5FE5: A6 88 18       LDA    $18,X
5FE8: 81 04          CMPA   #$04
5FEA: 24 0E          BCC    $5FFA
5FEC: 48             ASLA
5FED: E6 A6          LDB    A,Y		; [bank_address]
5FEF: EA 03          ORB    $3,X
5FF1: E7 02          STB    $2,X
5FF3: 4C             INCA
5FF4: E6 A6          LDB    A,Y		; [bank_address]
5FF6: E7 88 19       STB    $19,X
5FF9: 39             RTS
5FFA: 6F 88 1B       CLR    $1B,X
5FFD: 39             RTS

6006: 34 7F          PSHS   U,Y,X,DP,D,CC
6008: 32 71          LEAS   -$F,S   ; [alloc_locals]
600A: 1F 43          TFR    S,U
600C: A7 47          STA    $7,U
600E: 84 3F          ANDA   #$3F
6010: 48             ASLA
6011: 8E 61 0B       LDX    #$610B
6014: 10 AE 86       LDY    A,X		; [bank_address]
6017: 6F 42          CLR    $2,U
6019: 6F 4C          CLR    $C,U
601B: 6F 4D          CLR    $D,U
601D: 5F             CLRB
601E: A6 A0          LDA    ,Y+		; [bank_address]
6020: 46             RORA
6021: 46             RORA
6022: 46             RORA
6023: 46             RORA
6024: 84 E0          ANDA   #$E0
6026: A7 48          STA    $8,U
6028: 5D             TSTB
6029: 26 02          BNE    $602D
602B: AE A1          LDX    ,Y++		; [bank_address]
602D: E6 A0          LDB    ,Y+		    ; [bank_address]
602F: C1 00          CMPB   #$00
6031: 27 3B          BEQ    $606E
6033: C1 01          CMPB   #$01
6035: 27 F4          BEQ    $602B
6037: C1 03          CMPB   #$03
6039: 26 04          BNE    $603F
603B: C6 01          LDB    #$01
603D: 20 DF          BRA    $601E
603F: C1 02          CMPB   #$02
6041: 26 08          BNE    $604B
6043: 1F 10          TFR    X,D
6045: E3 A1          ADDD   ,Y++      ; [bank_address]
6047: 1F 01          TFR    D,X
6049: 20 E2          BRA    $602D
604B: C1 05          CMPB   #$05
604D: 26 04          BNE    $6053
604F: 6F 42          CLR    $2,U
6051: 20 DA          BRA    $602D
6053: C1 04          CMPB   #$04
6055: 26 08          BNE    $605F
6057: 63 42          COM    $2,U
6059: E6 A0          LDB    ,Y+		; [bank_address]
605B: E7 45          STB    $5,U
605D: 20 CE          BRA    $602D
605F: C1 06          CMPB   #$06
6061: 26 06          BNE    $6069
6063: EC A1          LDD    ,Y++		; [bank_address]
6065: ED 4C          STD    $C,U
6067: 20 C4          BRA    $602D
6069: BD 60 72       JSR    $6072
606C: 20 BF          BRA    $602D
606E: 32 6F          LEAS   $F,S   ; [free_locals]
6070: 35 FF          PULS   CC,D,DP,X,Y,U,PC

6072: A6 47          LDA    $7,U
6074: 2A 02          BPL    $6078
6076: C6 20          LDB    #$20
6078: C0 20          SUBB   #$20
607A: 4F             CLRA
607B: E3 4C          ADDD   $C,U
607D: AA 48          ORA    $8,U
607F: ED 81          STD    ,X++		; [video_address_word]
6081: 6D 42          TST    $2,U
6083: 2A 05          BPL    $608A
6085: A6 45          LDA    $5,U
6087: BD FE 23       JSR    $FE23
608A: 39             RTS

608B: 86 00          LDA    #$00
608D: 17 FF 76       LBSR   $6006
6090: 17 00 41       LBSR   $60D4
6093: BD 64 50       JSR    $6450
6096: 4C             INCA
6097: 81 02          CMPA   #$02
6099: 25 F8          BCS    $6093
609B: 8E 1F 04       LDX    #$1F04
609E: 10 8E 60 CC    LDY    #$60CC
60A2: 86 42          LDA    #$42
60A4: E6 A0          LDB    ,Y+		; [bank_address]
60A6: ED 88 28       STD    $28,X		; [video_address_word]
60A9: E6 A0          LDB    ,Y+		; [bank_address]
60AB: ED 81          STD    ,X++		; [video_address_word]
60AD: E6 A0          LDB    ,Y+		; [bank_address]
60AF: ED 88 28       STD    $28,X		; [video_address_word]
60B2: E6 A0          LDB    ,Y+		; [bank_address]
60B4: ED 81          STD    ,X++		; [video_address_word]
60B6: 30 88 3C       LEAX   $3C,X
60B9: E6 A0          LDB    ,Y+	; [bank_address]
60BB: ED 88 28       STD    $28,X		; [video_address_word]
60BE: E6 A0          LDB    ,Y+		; [bank_address]
60C0: ED 81          STD    ,X++		; [video_address_word]
60C2: E6 A0          LDB    ,Y+		; [bank_address]
60C4: ED 88 28       STD    $28,X		; [video_address_word]
60C7: E6 A0          LDB    ,Y+		; [bank_address]
60C9: ED 84          STD    ,X		; [video_address_word]
60CB: 39             RTS

60CC: D9 D7          ADCB   $D7
60CE: DA D8          ORB    $D8
60D0: DD DB          STD    $DB
60D2: DE DC          LDU    $DC
60D4: 32 7F          LEAS   -$1,S   ; [alloc_locals]
60D6: C6 20          LDB    #$20
60D8: E7 E4          STB    ,S	; [local]
60DA: 8E 18 42       LDX    #$1842
60DD: 10 8E 1F 82    LDY    #$1F82
60E1: CC 00 62       LDD    #$0062
60E4: ED 81          STD    ,X++		; [video_address_word]
60E6: ED A1          STD    ,Y++		; [video_address_word]
60E8: 6A E4          DEC    ,S	; [local]
60EA: 26 F5          BNE    $60E1
60EC: 8E 18 00       LDX    #$1800
60EF: 10 8E 18 3E    LDY    #$183E
60F3: C6 20          LDB    #$20
60F5: E7 E4          STB    ,S	; [local]
60F7: CC 00 62       LDD    #$0062
60FA: ED 84          STD    ,X		; [video_address_word]
60FC: ED A4          STD    ,Y		; [video_address_word]
60FE: 30 88 40       LEAX   $40,X
6101: 31 A8 40       LEAY   $40,Y
6104: 6A E4          DEC    ,S	; [local]
6106: 26 EF          BNE    $60F7
6108: 32 61          LEAS   $1,S   ; [free_locals]
610A: 39             RTS

6450: 34 7F          PSHS   U,Y,X,DP,D,CC                                
6452: 32 71          LEAS   -$F,S                                           ; [alloc_locals]
6454: 1F 43          TFR    S,U			; strange!!
6456: A7 47          STA    $7,U
6458: 6F 42          CLR    $2,U
645A: 6F 4C          CLR    $C,U
645C: 6F 4D          CLR    $D,U
645E: C6 06          LDB    #$06
6460: 3D             MUL
6461: C3 64 D0       ADDD   #$64D0
6464: 1F 02          TFR    D,Y
6466: AE A1          LDX    ,Y++		; [bank_address]
6468: A6 A0          LDA    ,Y+		; [bank_address]
646A: A7 4A          STA    $A,U
646C: 6A 4A          DEC    $A,U
646E: 44             LSRA
646F: 34 01          PSHS   CC
6471: 89 00          ADCA   #$00
6473: A7 4B          STA    $B,U
6475: 6F 4E          CLR    $E,U
6477: 34 10          PSHS   X
6479: AE A1          LDX    ,Y++		; [bank_address]
647B: A6 A4          LDA    ,Y		; [bank_address]
647D: 84 07          ANDA   #$07
647F: A7 C4          STA    ,U
6481: 46             RORA
6482: 46             RORA
6483: 46             RORA
6484: 46             RORA
6485: 84 E0          ANDA   #$E0
6487: A7 48          STA    $8,U
6489: 1F 12          TFR    X,Y
648B: 35 10          PULS   X
648D: 4F             CLRA
648E: 35 01          PULS   CC
6490: 24 01          BCC    $6493
6492: 43             COMA
6493: A7 49          STA    $9,U
6495: A6 4E          LDA    $E,U
6497: E6 A6          LDB    A,Y
6499: 6D 49          TST    $9,U
649B: 2B 0A          BMI    $64A7
649D: 1F 98          TFR    B,A
649F: 54             LSRB
64A0: 54             LSRB
64A1: 54             LSRB
64A2: 54             LSRB
64A3: 8D 12          BSR    $64B7
64A5: 1F 89          TFR    A,B
64A7: 8D 0E          BSR    $64B7
64A9: 6F 49          CLR    $9,U
64AB: 6C 4E          INC    $E,U
64AD: A6 4E          LDA    $E,U
64AF: A1 4B          CMPA   $B,U
64B1: 25 E2          BCS    $6495
64B3: 32 6F          LEAS   $F,S   ; [free_locals]
64B5: 35 FF          PULS   CC,D,DP,X,Y,U,PC

64B7: 34 02          PSHS   A
64B9: C4 0F          ANDB   #$0F
64BB: CB 30          ADDB   #$30
64BD: C1 30          CMPB   #$30
64BF: 27 02          BEQ    $64C3
64C1: 6F 4A          CLR    $A,U
64C3: A6 4A          LDA    $A,U
64C5: 27 04          BEQ    $64CB
64C7: 6A 4A          DEC    $A,U
64C9: C6 20          LDB    #$20
64CB: BD 60 72       JSR    $6072
64CE: 35 82          PULS   A,PC

6524: 34 36          PSHS   Y,X,D                                       
6526: 10 8E 65 6C    LDY    #$656C                                      
652A: 96 36          LDA    $36
652C: 81 03          CMPA   #$03
652E: 26 06          BNE    $6536
6530: 0D 37          TST    $37
6532: 27 02          BEQ    $6536
6534: 86 04          LDA    #$04
6536: E6 A6          LDB    A,Y		; [bank_address]
6538: 4F             CLRA
6539: FD 0E 5D       STD    $0E5D
653C: 7F 0E 5F       CLR    $0E5F
653F: 10 8E 66 4A    LDY    #$664A
6543: 86 00          LDA    #$00
6545: 8E 19 1A       LDX    #$191A
6548: E6 A0          LDB    ,Y+		; [bank_address]
654A: C1 FF          CMPB   #$FF
654C: 27 04          BEQ    $6552
654E: ED 81          STD    ,X++	; [video_address_word]
6550: 20 F6          BRA    $6548
6552: 8E 19 5A       LDX    #$195A
6555: E6 A0          LDB    ,Y+		; [bank_address]
6557: C1 FF          CMPB   #$FF
6559: 27 04          BEQ    $655F
655B: ED 81          STD    ,X++	; [video_address_word]
655D: 20 F6          BRA    $6555
655F: BD 65 8F       JSR    $658F
6562: 7F 0E 63       CLR    $0E63
6565: 86 9F          LDA    #$9F
6567: BD 60 06       JSR    $6006
656A: 35 B6          PULS   D,X,Y,PC


6571: B6 0E 63       LDA    $0E63
6574: 2B 56          BMI    $65CC
6576: BD 65 CD       JSR    $65CD
6579: 24 0D          BCC    $6588
657B: B6 0E 63       LDA    $0E63
657E: 8A 80          ORA    #$80
6580: B7 0E 63       STA    $0E63
6583: 86 1F          LDA    #$1F
6585: BD 60 06       JSR    $6006
6588: B6 0E 5F       LDA    $0E5F
658B: 10 26 00 3D    LBNE   $65CC
658F: B6 0E 5E       LDA    time_0e5e
6592: 1F 89          TFR    A,B
6594: 44             LSRA
6595: 44             LSRA
6596: 44             LSRA
6597: 44             LSRA
6598: 84 0F          ANDA   #$0F
659A: B7 0E 61       STA    $0E61
659D: C4 0F          ANDB   #$0F
659F: F7 0E 62       STB    $0E62
65A2: B6 0E 61       LDA    $0E61
65A5: 8E 66 54       LDX    #$6654
65A8: 48             ASLA
65A9: 30 86          LEAX   A,X
65AB: 86 00          LDA    #$00
65AD: E6 80          LDB    ,X+      ; [bank_address]
65AF: FD 19 22       STD    $1922
65B2: E6 80          LDB    ,X+      ; [bank_address]
65B4: FD 19 62       STD    $1962
65B7: B6 0E 62       LDA    $0E62
65BA: 48             ASLA
65BB: 8E 66 54       LDX    #$6654
65BE: 30 86          LEAX   A,X
65C0: 86 00          LDA    #$00
65C2: E6 80          LDB    ,X+      ; [bank_address]
65C4: FD 19 24       STD    $1924
65C7: E6 80          LDB    ,X+      ; [bank_address]
65C9: FD 19 64       STD    $1964
65CC: 39             RTS
65CD: 96 51          LDA    $51
65CF: 84 01          ANDA   #$01
65D1: 27 36          BEQ    $6609
65D3: 7C 0E 5F       INC    $0E5F
65D6: 96 55          LDA    $55
65D8: 10 8E 66 46    LDY    #$6646
65DC: E6 A6          LDB    A,Y		; [bank_address]
65DE: F1 0E 5F       CMPB   $0E5F
65E1: 24 1E          BCC    $6601
65E3: 7F 0E 5F       CLR    $0E5F
65E6: B6 0E 5E       LDA    time_0e5e
65E9: 8B 99          ADDA   #$99
65EB: 19             DAA
65EC: B7 0E 5E       STA    time_0e5e
65EF: 81 99          CMPA   #$99
65F1: 26 0E          BNE    $6601
65F3: 86 59          LDA    #$59
65F5: B7 0E 5E       STA    time_0e5e
65F8: B6 0E 5D       LDA    $0E5D
65FB: 8B 99          ADDA   #$99
65FD: 19             DAA
65FE: B7 0E 5D       STA    $0E5D
6601: FC 0E 5D       LDD    $0E5D
6604: 26 03          BNE    $6609
6606: 1A 01          ORCC   #$01
6608: 39             RTS
6609: 1C FE          ANDCC  #$FE
660B: 39             RTS

660C: 34 10          PSHS   X
660E: B6 03 EA       LDA    $03EA
6611: 81 09          CMPA   #$09
6613: 25 02          BCS    $6617
6615: 86 09          LDA    #$09
6617: 8E 66 54       LDX    #$6654
661A: 48             ASLA
661B: 30 86          LEAX   A,X
661D: 86 00          LDA    #$00
661F: E6 80          LDB    ,X+      ; [bank_address]
6621: FD 1F 08       STD    $1F08
6624: E6 80          LDB    ,X+      ; [bank_address]
6626: FD 1F 48       STD    $1F48
6629: B6 04 48       LDA    $0448
662C: 81 09          CMPA   #$09
662E: 25 02          BCS    $6632
6630: 86 09          LDA    #$09
6632: 8E 66 54       LDX    #$6654
6635: 48             ASLA
6636: 30 86          LEAX   A,X
6638: 86 00          LDA    #$00
663A: E6 80          LDB    ,X+      ; [bank_address]
663C: FD 1F 30       STD    $1F30
663F: E6 80          LDB    ,X+      ; [bank_address]
6641: FD 1F 70       STD    $1F70
6644: 35 90          PULS   X,PC

6668: B6 03 C1       LDA    $03C1                                       
666B: 97 00          STA    $00                                         
666D: 86 C0          LDA    #$C0                                        
666F: 97 03          STA    $03                                         
6671: CC 1F 4A       LDD    #$1F4A                                      
6674: DD 01          STD    $01
6676: BD 66 8B       JSR    $668B
6679: B6 04 1F       LDA    $041F
667C: 97 00          STA    $00
667E: 86 00          LDA    #$00
6680: 97 03          STA    $03
6682: CC 1F 72       LDD    #$1F72
6685: DD 01          STD    $01
6687: BD 66 8B       JSR    $668B
668A: 39             RTS

668B: 34 50          PSHS   U,X
668D: 32 7E          LEAS   -$2,S   ; [alloc_locals]
668F: 96 00          LDA    $00
6691: BD 66 BC       JSR    $66BC
6694: E7 E4          STB    ,S	; [local]
6696: DE 01          LDU    $01
6698: 86 05          LDA    #$05
669A: A7 61          STA    $1,S	; [local]
669C: 96 03          LDA    $03
669E: 6D E4          TST    ,S	; [local]
66A0: 27 0E          BEQ    $66B0
66A2: C6 61          LDB    #$61
; energy bar
66A4: ED C1          STD    ,U++	; [video_address_word]
66A6: 6A 61          DEC    $1,S	; [local]
66A8: 6A E4          DEC    ,S	; [local]
66AA: 26 F8          BNE    $66A4
66AC: 6D 61          TST    $1,S	; [local]
66AE: 27 08          BEQ    $66B8
66B0: C6 60          LDB    #$60
66B2: ED C1          STD    ,U++	; [video_address_word]
66B4: 6A 61          DEC    $1,S	; [local]
66B6: 26 FA          BNE    $66B2
66B8: 32 62          LEAS   $2,S   ; [free_locals]
66BA: 35 D0          PULS   X,U,PC

66BC: 5F             CLRB
66BD: 4D             TSTA
66BE: 27 0D          BEQ    $66CD
66C0: 5C             INCB
66C1: C1 05          CMPB   #$05
66C3: 25 04          BCS    $66C9
66C5: C6 05          LDB    #$05
66C7: 20 04          BRA    $66CD
66C9: 80 0A          SUBA   #$0A
66CB: 2A F3          BPL    $66C0
66CD: 39             RTS

66CE: 34 02          PSHS   A		; [manual_stack_push]
66D0: 10 AE 88 2D    LDY    $2D,X
66D4: A6 A8 1F       LDA    $1F,Y
66D7: 27 08          BEQ    $66E1
66D9: A0 E4          SUBA   ,S		; [handled]
66DB: 24 01          BCC    $66DE
66DD: 4F             CLRA
66DE: A7 A8 1F       STA    $1F,Y
66E1: BD 66 68       JSR    $6668
66E4: 35 82          PULS   A,PC		; [manual_stack_pull]

flip_screen_if_needed_66e6:
66E6: D6 26          LDB    game_in_play_0026
66E8: 26 07          BNE    $66F1
66EA: F6 38 04       LDB    dsw_1_3804
66ED: C4 04          ANDB   #$04
66EF: 27 03          BEQ    $66F4
66F1: B7 38 0E       STA    $380E
66F4: 39             RTS

66F5: 34 40          PSHS   U
66F7: 10 AE 88 35    LDY    $35,X
66FB: A6 A8 16       LDA    $16,Y
66FE: 2B 32          BMI    $6732
6700: A6 88 34       LDA    $34,X
6703: 2A 2D          BPL    $6732
6705: E6 A8 17       LDB    $17,Y
6708: C1 09          CMPB   #$09
670A: 26 03          BNE    $670F
670C: BD 75 61       JSR    $7561
670F: 85 02          BITA   #$02
6711: 27 1F          BEQ    $6732
6713: 32 7E          LEAS   -$2,S   ; [alloc_locals]
6715: 6F E4          CLR    ,S	; [local]
6717: A6 A8 17       LDA    $17,Y
671A: 81 07          CMPA   #$07
671C: 27 12          BEQ    $6730
671E: 81 0E          CMPA   #$0E
6720: 27 0E          BEQ    $6730
6722: 81 05          CMPA   #$05
6724: 27 0A          BEQ    $6730
6726: A6 A8 34       LDA    $34,Y
6729: 85 08          BITA   #$08
672B: 26 03          BNE    $6730
672D: 7E 67 F8       JMP    $67F8

6730: 32 62          LEAS   $2,S   ; [free_locals]
6732: 35 C0          PULS   U,PC

6734: 34 40          PSHS   U
6736: A6 88 1B       LDA    $1B,X
6739: 84 3F          ANDA   #$3F
673B: 81 01          CMPA   #$01
673D: 26 07          BNE    $6746
673F: A6 88 22       LDA    $22,X
6742: 81 08          CMPA   #$08
6744: 27 EC          BEQ    $6732
6746: A6 88 34       LDA    $34,X
6749: 2A E7          BPL    $6732
674B: EE 88 35       LDU    $35,X
674E: E6 C8 16       LDB    $16,U
6751: 2B DF          BMI    $6732
6753: E6 C8 17       LDB    $17,U
6756: C1 09          CMPB   #$09
6758: 26 03          BNE    $675D
675A: BD 75 61       JSR    $7561
675D: 85 02          BITA   #$02
675F: 26 54          BNE    $67B5
6761: A6 88 43       LDA    $43,X
6764: 85 40          BITA   #$40
6766: 26 1D          BNE    $6785
6768: 85 10          BITA   #$10
676A: 27 C6          BEQ    $6732
676C: 10 8E 68 85    LDY    #$6885
6770: A6 C8 17       LDA    $17,U
6773: A6 A6          LDA    A,Y      ; [bank_address]
6775: 81 16          CMPA   #$16
6777: 26 B9          BNE    $6732
6779: 86 07          LDA    #$07
677B: A7 88 1B       STA    $1B,X
677E: 86 09          LDA    #$09
6780: A7 88 1E       STA    $1E,X
6783: 20 AD          BRA    $6732
6785: A6 88 21       LDA    $21,X
6788: 26 A8          BNE    $6732
678A: A6 88 1B       LDA    $1B,X
678D: 84 3F          ANDA   #$3F
678F: 81 0D          CMPA   #$0D
6791: 27 9F          BEQ    $6732
6793: 81 16          CMPA   #$16
6795: 27 9B          BEQ    $6732
6797: 10 AE 88 35    LDY    $35,X
679B: A6 A8 17       LDA    $17,Y      ; [bank_address]
679E: CE 68 85       LDU    #$6885
67A1: A6 C6          LDA    A,U
67A3: 81 FF          CMPA   #$FF
67A5: 27 8B          BEQ    $6732
67A7: A7 88 1B       STA    $1B,X
67AA: 10 AF 88 41    STY    $41,X
67AE: 7E 68 83       JMP    $6883
67B1: 32 62          LEAS   $2,S   ; [free_locals]
67B3: 35 C0          PULS   U,PC

67B5: 32 7E          LEAS   -$2,S   ; [alloc_locals]
67B7: A6 88 1B       LDA    $1B,X
67BA: 84 3F          ANDA   #$3F
67BC: 81 07          CMPA   #$07
67BE: 26 08          BNE    $67C8
67C0: A6 02          LDA    $2,X
67C2: 84 7F          ANDA   #$7F
67C4: 81 52          CMPA   #$52
67C6: 27 E9          BEQ    $67B1
67C8: 6F E4          CLR    ,S	; [local]
67CA: 10 AE 88 35    LDY    $35,X
67CE: A6 A8 17       LDA    $17,Y
67D1: 81 07          CMPA   #$07
67D3: 27 DC          BEQ    $67B1
67D5: 81 0E          CMPA   #$0E
67D7: 27 D8          BEQ    $67B1
67D9: 81 05          CMPA   #$05
67DB: 27 D4          BEQ    $67B1
67DD: E6 A8 34       LDB    $34,Y
67E0: C5 01          BITB   #$01
67E2: 27 CD          BEQ    $67B1
67E4: C5 04          BITB   #$04
67E6: 27 10          BEQ    $67F8
67E8: A6 01          LDA    $1,X
67EA: 4C             INCA
67EB: 46             RORA
67EC: 46             RORA
67ED: 46             RORA
67EE: 46             RORA
67EF: A8 A8 34       EORA   $34,Y
67F2: 84 60          ANDA   #$60
67F4: 10 26 00 89    LBNE   $6881
67F8: A6 A8 34       LDA    $34,Y
67FB: 84 93          ANDA   #$93
67FD: A7 A8 34       STA    $34,Y
6800: EC 24          LDD    $4,Y
6802: A3 04          SUBD   $4,X
6804: 2A 04          BPL    $680A
6806: 86 80          LDA    #$80
6808: A7 E4          STA    ,S	; [local]
680A: 6F 61          CLR    $1,S	; [local]
680C: A6 03          LDA    $3,X
680E: A8 E4          EORA   ,S	; [local]
6810: 27 02          BEQ    $6814
6812: 6C 61          INC    $1,S	; [local]
6814: A6 0F          LDA    $F,X
6816: A8 E4          EORA   ,S	; [local]
6818: 26 06          BNE    $6820
681A: A6 61          LDA    $1,S	; [local]
681C: 88 01          EORA   #$01
681E: A7 61          STA    $1,S	; [local]
6820: 86 01          LDA    #$01
6822: A7 88 1B       STA    $1B,X
6825: A6 61          LDA    $1,S	; [local]
6827: A7 88 22       STA    $22,X
682A: A6 88 1F       LDA    $1F,X
682D: A0 88 20       SUBA   $20,X
6830: 24 01          BCC    $6833
6832: 4F             CLRA
6833: A7 88 1F       STA    $1F,X
6836: CE 68 94       LDU    #$6894
6839: E6 A8 17       LDB    $17,Y
683C: C4 3F          ANDB   #$3F
683E: A6 01          LDA    $1,X
6840: 81 02          CMPA   #$02
6842: 25 1A          BCS    $685E
6844: A6 C5          LDA    B,U      ; [bank_address]
6846: 81 FF          CMPA   #$FF
6848: 27 14          BEQ    $685E
684A: 34 34          PSHS   Y,X,B
684C: E6 A8 34       LDB    $34,Y
684F: 8E 03 A2       LDX    #$03A2
6852: C5 20          BITB   #$20
6854: 27 03          BEQ    $6859
6856: 30 88 5E       LEAX   $5E,X
6859: BD F9 46       JSR    $F946
685C: 35 34          PULS   B,X,Y
685E: C1 06          CMPB   #$06
6860: 26 1F          BNE    $6881
6862: 86 11          LDA    #$11
6864: A7 A8 1B       STA    $1B,Y
6867: A6 A8 16       LDA    $16,Y
686A: 2A 15          BPL    $6881
686C: EE A8 1F       LDU    $1F,Y
686F: CC 00 00       LDD    #$0000
6872: A7 88 16       STA    $16,X
6875: ED A8 1F       STD    $1F,Y
6878: ED C8 41       STD    $41,U
687B: A7 C8 21       STA    $21,U
687E: 7A 0E 37       DEC    $0E37
6881: 32 62          LEAS   $2,S   ; [free_locals]
6883: 35 C0          PULS   U,PC

68A6: A6 88 34       LDA    $34,X                                      
68A9: 2A 28          BPL    $68D3
68AB: 10 AE 88 35    LDY    $35,X
68AF: A6 A8 17       LDA    $17,Y
68B2: 84 7F          ANDA   #$7F
68B4: 81 0F          CMPA   #$0F
68B6: 26 1B          BNE    $68D3
68B8: 86 01          LDA    #$01
68BA: A7 88 1B       STA    $1B,X
68BD: 86 01          LDA    #$01
68BF: A7 88 22       STA    $22,X
68C2: A6 88 1F       LDA    $1F,X
68C5: A0 88 20       SUBA   $20,X
68C8: 24 01          BCC    $68CB
68CA: 4F             CLRA
68CB: A7 88 1F       STA    $1F,X
68CE: 86 02          LDA    #$02
68D0: A7 A8 31       STA    $31,Y
68D3: 39             RTS

68D4: 32 7C          LEAS   -$4,S   ; [alloc_locals]
68D6: B6 0E 2D       LDA    $0E2D
68D9: 26 6B          BNE    $6946
68DB: A6 84          LDA    ,X
68DD: 84 C0          ANDA   #$C0
68DF: 81 C0          CMPA   #$C0
68E1: 26 63          BNE    $6946
68E3: EC 06          LDD    $6,X
68E5: E3 08          ADDD   $8,X
68E7: ED E4          STD    ,S	; [local]
68E9: DC 3F          LDD    $3F
68EB: C3 01 80       ADDD   #$0180
68EE: 10 A3 E4       CMPD   ,S	; [local]
68F1: 25 16          BCS    $6909
68F3: EC E4          LDD    ,S	; [local]
68F5: C3 00 40       ADDD   #$0040
68F8: 81 FF          CMPA   #$FF
68FA: 27 16          BEQ    $6912
68FC: 10 93 3F       CMPD   $3F
68FF: 25 11          BCS    $6912
6901: A6 84          LDA    ,X
6903: 8A 40          ORA    #$40
6905: A7 84          STA    ,X
6907: 20 3D          BRA    $6946
6909: A6 88 15       LDA    $15,X
690C: 85 40          BITA   #$40
690E: 26 36          BNE    $6946
6910: 20 34          BRA    $6946
6912: 6F 84          CLR    ,X
6914: 6D 88 17       TST    $17,X
6917: 2A 08          BPL    $6921
6919: B6 09 F2       LDA    $09F2
691C: 8A 80          ORA    #$80
691E: B7 09 F2       STA    $09F2
6921: 7A 09 EF       DEC    $09EF
6924: A6 88 45       LDA    $45,X
6927: 27 03          BEQ    $692C
6929: 7A 0A B5       DEC    $0AB5
692C: A6 88 21       LDA    $21,X
692F: 27 15          BEQ    $6946
6931: 10 AE 88 41    LDY    $41,X
6935: 6F A4          CLR    ,Y
6937: 6F A8 16       CLR    $16,Y
693A: 6F A8 1F       CLR    $1F,Y
693D: 6F A8 20       CLR    $20,Y
6940: 6F 88 21       CLR    $21,X
6943: 6F 88 42       CLR    $42,X
6946: 32 64          LEAS   $4,S   ; [free_locals]
6948: 39             RTS
6949: A6 88 21       LDA    $21,X
694C: 81 01          CMPA   #$01
694E: 26 09          BNE    $6959
6950: B6 0E 37       LDA    $0E37
6953: 81 01          CMPA   #$01
6955: 24 6C          BCC    $69C3
6957: 25 0B          BCS    $6964
6959: 81 04          CMPA   #$04
695B: 26 66          BNE    $69C3
695D: B6 0E 38       LDA    $0E38
6960: 81 01          CMPA   #$01
6962: 24 5F          BCC    $69C3
6964: A6 88 1B       LDA    $1B,X
6967: 84 3F          ANDA   #$3F
6969: 81 00          CMPA   #$00
696B: 27 0F          BEQ    $697C
696D: 81 10          CMPA   #$10
696F: 26 52          BNE    $69C3
6971: A6 88 4B       LDA    $4B,X
6974: 81 04          CMPA   #$04
6976: 27 04          BEQ    $697C
6978: 81 06          CMPA   #$06
697A: 26 47          BNE    $69C3
697C: B6 0E 49       LDA    $0E49
697F: 81 08          CMPA   #$08
6981: 24 40          BCC    $69C3
6983: B6 0E 48       LDA    $0E48
6986: 81 E0          CMPA   #$E0
6988: 24 39          BCC    $69C3
698A: 81 30          CMPA   #$30
698C: 25 36          BCS    $69C4
698E: BD FC 00       JSR    $FC00
6991: 26 30          BNE    $69C3
6993: 10 8E 69 DA    LDY    #$69DA
6997: A6 88 1B       LDA    $1B,X
699A: 84 3F          ANDA   #$3F
699C: 81 07          CMPA   #$07
699E: 27 07          BEQ    $69A7
69A0: 86 07          LDA    #$07
69A2: A7 88 1B       STA    $1B,X
69A5: 20 0F          BRA    $69B6
69A7: A6 88 1E       LDA    $1E,X
69AA: E6 01          LDB    $1,X
69AC: C1 22          CMPB   #$22
69AE: 25 02          BCS    $69B2
69B0: C0 17          SUBB   #$17
69B2: A1 A5          CMPA   B,Y      ; [bank_address]
69B4: 27 0D          BEQ    $69C3
69B6: A6 01          LDA    $1,X
69B8: 81 22          CMPA   #$22
69BA: 25 02          BCS    $69BE
69BC: 80 17          SUBA   #$17
69BE: A6 A6          LDA    A,Y      ; [bank_address]
69C0: A7 88 1E       STA    $1E,X
69C3: 39             RTS
69C4: A6 88 4B       LDA    $4B,X
69C7: 81 04          CMPA   #$04
69C9: 27 04          BEQ    $69CF
69CB: 81 06          CMPA   #$06
69CD: 26 0A          BNE    $69D9
69CF: 86 11          LDA    #$11
69D1: A7 88 1B       STA    $1B,X
69D4: 86 03          LDA    #$03
69D6: A7 88 4E       STA    $4E,X
69D9: 39             RTS

6A1C: F0 15 10       SUBB   $1510
6A1F: B6 09 F2       LDA    $09F2
6A22: 10 2B 00 9A    LBMI   $6AC0
6A26: EC 04          LDD    $4,X
6A28: C3 00 40       ADDD   #$0040
6A2B: 10 93 3C       CMPD   $3C
6A2E: 25 35          BCS    $6A65
6A30: 96 36          LDA    $36
6A32: 10 8E 69 E7    LDY    #$69E7
6A36: 48             ASLA
6A37: 10 AE A6       LDY    A,Y      ; [bank_address]
6A3A: 96 38          LDA    $38
6A3C: 48             ASLA
6A3D: 48             ASLA
6A3E: 31 A6          LEAY   A,Y
6A40: A6 04          LDA    $4,X
6A42: 81 FF          CMPA   #$FF
6A44: 27 1F          BEQ    $6A65
6A46: DC 3C          LDD    $3C
6A48: 10 A3 04       CMPD   $4,X
6A4B: 24 11          BCC    $6A5E
6A4D: EC A4          LDD    ,Y
6A4F: 10 A3 04       CMPD   $4,X
6A52: 25 11          BCS    $6A65
6A54: DC 3C          LDD    $3C
6A56: C3 01 20       ADDD   #$0120
6A59: 10 A3 04       CMPD   $4,X
6A5C: 24 62          BCC    $6AC0
6A5E: EC 22          LDD    $2,Y
6A60: 10 A3 04       CMPD   $4,X
6A63: 25 5B          BCS    $6AC0
6A65: A6 88 16       LDA    $16,X
6A68: 2A 0F          BPL    $6A79
6A6A: 10 AE 88 1F    LDY    $1F,X
6A6E: A6 A4          LDA    ,Y
6A70: 2A 07          BPL    $6A79
6A72: A6 A8 21       LDA    $21,Y
6A75: 27 02          BEQ    $6A79
6A77: 20 47          BRA    $6AC0
6A79: A6 88 1B       LDA    $1B,X
6A7C: 84 3F          ANDA   #$3F
6A7E: E6 88 17       LDB    $17,X
6A81: C1 05          CMPB   #$05
6A83: 27 0A          BEQ    $6A8F
6A85: C1 06          CMPB   #$06
6A87: 26 0E          BNE    $6A97
6A89: 81 03          CMPA   #$03
6A8B: 27 33          BEQ    $6AC0
6A8D: 26 08          BNE    $6A97
6A8F: 81 04          CMPA   #$04
6A91: 27 2D          BEQ    $6AC0
6A93: 81 10          CMPA   #$10
6A95: 27 29          BEQ    $6AC0
6A97: CC 00 00       LDD    #$0000
6A9A: A7 84          STA    ,X
6A9C: ED 88 1F       STD    $1F,X
6A9F: A7 88 16       STA    $16,X
6AA2: A6 88 17       LDA    $17,X
6AA5: 81 07          CMPA   #$07
6AA7: 24 17          BCC    $6AC0
6AA9: 10 8E 73 4F    LDY    #$734F
6AAD: A6 A6          LDA    A,Y		; [bank_address]
6AAF: 81 FF          CMPA   #$FF
6AB1: 27 0D          BEQ    $6AC0
6AB3: 10 8E 73 56    LDY    #$7356
6AB7: 10 AE A6       LDY    A,Y		; [bank_address]
6ABA: 6D A4          TST    ,Y
6ABC: 27 02          BEQ    $6AC0
6ABE: 6A A4          DEC    ,Y
6AC0: 39             RTS
6AC1: 34 40          PSHS   U
6AC3: 32 7D          LEAS   -$3,S   ; [alloc_locals]
6AC5: 96 38          LDA    $38
6AC7: 27 5A          BEQ    $6B23
6AC9: A6 01          LDA    $1,X
6ACB: 81 02          CMPA   #$02
6ACD: 26 54          BNE    $6B23
6ACF: A6 88 15       LDA    $15,X
6AD2: 85 40          BITA   #$40
6AD4: 26 4D          BNE    $6B23
6AD6: A6 88 1B       LDA    $1B,X
6AD9: 84 3F          ANDA   #$3F
6ADB: 81 00          CMPA   #$00
6ADD: 26 44          BNE    $6B23
6ADF: FE 0E 4B       LDU    $0E4B
6AE2: A6 C8 1B       LDA    $1B,U
6AE5: 84 3F          ANDA   #$3F
6AE7: 81 05          CMPA   #$05
6AE9: 27 38          BEQ    $6B23
6AEB: 81 01          CMPA   #$01
6AED: 27 34          BEQ    $6B23
6AEF: 81 04          CMPA   #$04
6AF1: 27 30          BEQ    $6B23
6AF3: B6 0E 49       LDA    $0E49
6AF6: 81 08          CMPA   #$08
6AF8: 24 29          BCC    $6B23
6AFA: B6 0E 48       LDA    $0E48
6AFD: 81 39          CMPA   #$39
6AFF: 25 22          BCS    $6B23
6B01: BD 4D B3       JSR    $4DB3
6B04: 1F 89          TFR    A,B
6B06: 84 07          ANDA   #$07
6B08: 10 8E 6B 27    LDY    #$6B27
6B0C: A6 A6          LDA    A,Y		; [bank_address]
6B0E: 2B 13          BMI    $6B23
6B10: 86 07          LDA    #$07
6B12: A7 88 1B       STA    $1B,X
6B15: 86 04          LDA    #$04
6B17: A7 88 1E       STA    $1E,X
6B1A: B6 0E 4A       LDA    $0E4A
6B1D: 46             RORA
6B1E: 46             RORA
6B1F: 84 80          ANDA   #$80
6B21: A7 03          STA    $3,X
6B23: 32 63          LEAS   $3,S   ; [free_locals]
6B25: 35 C0          PULS   U,PC

6B2F: 32 7F          LEAS   -$1,S   ; [alloc_locals]
6B31: B6 09 F2       LDA    $09F2
6B34: 2A 37          BPL    $6B6D
6B36: B6 0E 2D       LDA    $0E2D
6B39: 26 32          BNE    $6B6D
6B3B: 8E 04 5E       LDX    #$045E
6B3E: 6F E4          CLR    ,S	; [local]
6B40: A6 84          LDA    ,X
6B42: 84 C0          ANDA   #$C0
6B44: 81 80          CMPA   #$80
6B46: 26 0D          BNE    $6B55
6B48: 6F 84          CLR    ,X
6B4A: 7A 09 EF       DEC    $09EF
6B4D: A6 88 45       LDA    $45,X
6B50: 27 03          BEQ    $6B55
6B52: 7A 0A B5       DEC    $0AB5
6B55: A6 88 21       LDA    $21,X
6B58: 27 08          BEQ    $6B62
6B5A: BD 6B 70       JSR    $6B70
6B5D: 86 01          LDA    #$01
6B5F: A7 A8 1B       STA    $1B,Y
6B62: C6 55          LDB    #$55
6B64: 3A             ABX
6B65: 6C E4          INC    ,S	; [local]
6B67: A6 E4          LDA    ,S	; [local]
6B69: 81 09          CMPA   #$09
6B6B: 25 D3          BCS    $6B40
6B6D: 32 61          LEAS   $1,S   ; [free_locals]
6B6F: 39             RTS

6B70: 34 16          PSHS   X,D
6B72: 10 AE 88 41    LDY    $41,X
6B76: CC 00 00       LDD    #$0000
6B79: ED 88 41       STD    $41,X
6B7C: A7 88 40       STA    $40,X
6B7F: ED A8 1F       STD    $1F,Y
6B82: A7 A8 16       STA    $16,Y
6B85: 6F 88 21       CLR    $21,X
6B88: 86 02          LDA    #$02
6B8A: A7 A8 1B       STA    $1B,Y
6B8D: A6 03          LDA    $3,X
6B8F: A7 23          STA    $3,Y
6B91: A6 A8 34       LDA    $34,Y
6B94: 84 93          ANDA   #$93
6B96: A7 A8 34       STA    $34,Y
6B99: A6 01          LDA    $1,X
6B9B: 81 02          CMPA   #$02
6B9D: 24 0F          BCC    $6BAE
6B9F: C6 44          LDB    #$44
6BA1: 4D             TSTA
6BA2: 27 02          BEQ    $6BA6
6BA4: C6 24          LDB    #$24
6BA6: AA A8 34       ORA    $34,Y
6BA9: A7 A8 34       STA    $34,Y
6BAC: 20 35          BRA    $6BE3
6BAE: A6 A8 34       LDA    $34,Y
6BB1: 8A 08          ORA    #$08
6BB3: A7 A8 34       STA    $34,Y
6BB6: A6 A8 17       LDA    $17,Y
6BB9: 84 1F          ANDA   #$1F
6BBB: 81 05          CMPA   #$05
6BBD: 27 15          BEQ    $6BD4
6BBF: 81 06          CMPA   #$06
6BC1: 26 20          BNE    $6BE3
6BC3: 7C 0E 37       INC    $0E37
6BC6: B6 0E 37       LDA    $0E37
6BC9: 81 02          CMPA   #$02
6BCB: 25 16          BCS    $6BE3
6BCD: 7A 0E 37       DEC    $0E37
6BD0: 6F A4          CLR    ,Y
6BD2: 20 0F          BRA    $6BE3
6BD4: 7C 0E 38       INC    $0E38
6BD7: B6 0E 38       LDA    $0E38
6BDA: 81 02          CMPA   #$02
6BDC: 25 05          BCS    $6BE3
6BDE: 7A 0E 38       DEC    $0E38
6BE1: 6F A4          CLR    ,Y
6BE3: 35 96          PULS   D,X,PC
6BE5: 32 7D          LEAS   -$3,S   ; [alloc_locals]
6BE7: 6F 88 37       CLR    $37,X
6BEA: B6 0E 4A       LDA    $0E4A
6BED: 85 02          BITA   #$02
6BEF: 26 15          BNE    $6C06
6BF1: 10 BE 0E 4B    LDY    $0E4B
6BF5: A6 A8 31       LDA    $31,Y
6BF8: 84 18          ANDA   #$18
6BFA: 26 07          BNE    $6C03
6BFC: B6 0E 49       LDA    $0E49
6BFF: 81 08          CMPA   #$08
6C01: 25 03          BCS    $6C06
6C03: 6C 88 37       INC    $37,X
6C06: A6 88 38       LDA    $38,X
6C09: 84 0F          ANDA   #$0F
6C0B: 81 03          CMPA   #$03
6C0D: 27 0C          BEQ    $6C1B
6C0F: 5F             CLRB
6C10: B6 0E 4A       LDA    $0E4A
6C13: 85 01          BITA   #$01
6C15: 27 02          BEQ    $6C19
6C17: CA 80          ORB    #$80
6C19: E7 03          STB    $3,X
6C1B: 32 63          LEAS   $3,S   ; [free_locals]
6C1D: 39             RTS

6C1E: 34 7E          PSHS   U,Y,X,DP,D
6C20: 10 8E 6C 42    LDY    #$6C42
6C24: A6 01          LDA    $1,X
6C26: 81 22          CMPA   #$22
6C28: 25 02          BCS    $6C2C
6C2A: 80 17          SUBA   #$17
6C2C: A6 A6          LDA    A,Y      ; [bank_address]
6C2E: 26 10          BNE    $6C40
6C30: 10 BE 0E 4B    LDY    $0E4B
6C34: A6 88 1B       LDA    $1B,X
6C37: 84 3F          ANDA   #$3F
6C39: 81 12          CMPA   #$12
6C3B: 27 03          BEQ    $6C40
6C3D: BD 6C 4F       JSR    $6C4F
6C40: 35 FE          PULS   D,DP,X,Y,U,PC


6C4F: 34 20          PSHS   Y
6C51: 32 7C          LEAS   -$4,S   ; [alloc_locals]
6C53: 86 02          LDA    #$02
6C55: A7 E4          STA    ,S	; [local]
6C57: EC 28          LDD    $8,Y
6C59: A3 08          SUBD   $8,X
6C5B: 10 27 00 B8    LBEQ   $6D17
6C5F: 2A 15          BPL    $6C76
6C61: ED 61          STD    $1,S	; [local]
6C63: CC 00 00       LDD    #$0000
6C66: A3 61          SUBD   $1,S	; [local]
6C68: 10 83 00 60    CMPD   #$0060
6C6C: 10 25 00 A7    LBCS   $6D17
6C70: 86 03          LDA    #$03
6C72: A7 E4          STA    ,S	; [local]
6C74: 20 08          BRA    $6C7E
6C76: 10 83 00 38    CMPD   #$0038
6C7A: 10 25 00 99    LBCS   $6D17
6C7E: B6 0B 4D       LDA    $0B4D
6C81: 84 0F          ANDA   #$0F
6C83: 10 27 00 90    LBEQ   $6D17
6C87: A6 88 21       LDA    $21,X
6C8A: 27 17          BEQ    $6CA3
6C8C: A6 01          LDA    $1,X
6C8E: 81 02          CMPA   #$02
6C90: 10 25 00 83    LBCS   $6D17
6C94: A6 88 21       LDA    $21,X
6C97: 81 03          CMPA   #$03
6C99: 25 08          BCS    $6CA3
6C9B: 81 04          CMPA   #$04
6C9D: 27 04          BEQ    $6CA3
6C9F: 81 07          CMPA   #$07
6CA1: 26 74          BNE    $6D17
6CA3: A6 88 32       LDA    $32,X
6CA6: 84 BF          ANDA   #$BF
6CA8: A7 88 32       STA    $32,X
6CAB: 5F             CLRB
6CAC: B6 0B 4A       LDA    $0B4A
6CAF: 81 01          CMPA   #$01
6CB1: 27 2E          BEQ    $6CE1
6CB3: 81 02          CMPA   #$02
6CB5: 26 1C          BNE    $6CD3
6CB7: EC 08          LDD    $8,X
6CB9: 10 83 01 10    CMPD   #$0110
6CBD: 25 22          BCS    $6CE1
6CBF: 10 83 01 60    CMPD   #$0160
6CC3: 24 1C          BCC    $6CE1
6CC5: 10 8E 0D FB    LDY    #$0DFB
6CC9: EC A1          LDD    ,Y++
6CCB: ED 04          STD    $4,X
6CCD: EC A1          LDD    ,Y++
6CCF: ED 06          STD    $6,X
6CD1: 25 44          BCS    $6D17
6CD3: 81 03          CMPA   #$03
6CD5: 27 0A          BEQ    $6CE1
6CD7: E6 88 32       LDB    $32,X
6CDA: CA 40          ORB    #$40
6CDC: E7 88 32       STB    $32,X
6CDF: C6 80          LDB    #$80
6CE1: E7 61          STB    $1,S	; [local]
6CE3: C4 0F          ANDB   #$0F
6CE5: 1F 98          TFR    B,A
6CE7: 4C             INCA
6CE8: A7 62          STA    $2,S	; [local]
6CEA: 10 8E 0E 0B    LDY    #$0E0B
6CEE: A6 A5          LDA    B,Y
6CF0: A1 62          CMPA   $2,S	; [local]
6CF2: 24 23          BCC    $6D17
6CF4: 6C A5          INC    B,Y
6CF6: A6 61          LDA    $1,S	; [local]
6CF8: A7 88 38       STA    $38,X
6CFB: A6 E4          LDA    ,S	; [local]
6CFD: A7 88 37       STA    $37,X
6D00: 86 12          LDA    #$12
6D02: A7 88 1B       STA    $1B,X
6D05: A6 88 31       LDA    $31,X
6D08: 8A 10          ORA    #$10
6D0A: 5D             TSTB
6D0B: 26 02          BNE    $6D0F
6D0D: 8A 08          ORA    #$08
6D0F: A7 88 31       STA    $31,X
6D12: EC 64          LDD    $4,S		; [pushed_parameter]
6D14: ED 88 2D       STD    $2D,X
6D17: 32 64          LEAS   $4,S   ; [free_locals]
6D19: 35 A0          PULS   Y,PC

6D1B: 96 36          LDA    $36
6D1D: D6 37          LDB    $37
6D1F: 10 83 02 01    CMPD   #$0201
6D23: 26 3F          BNE    $6D64
6D25: DC 3C          LDD    $3C
6D27: 10 83 11 00    CMPD   #$1100
6D2B: 25 37          BCS    $6D64
6D2D: DC 3F          LDD    $3F
6D2F: 10 83 01 20    CMPD   #$0120
6D33: 24 2F          BCC    $6D64
6D35: B6 03 D3       LDA    $03D3
6D38: BA 04 31       ORA    $0431
6D3B: 84 08          ANDA   #$08
6D3D: 26 25          BNE    $6D64
6D3F: 10 8E 6C 42    LDY    #$6C42
6D43: A6 01          LDA    $1,X
6D45: 81 22          CMPA   #$22
6D47: 25 02          BCS    $6D4B
6D49: 80 17          SUBA   #$17
6D4B: A6 A6          LDA    A,Y      ; [bank_address]
6D4D: 26 15          BNE    $6D64
6D4F: A6 88 38       LDA    $38,X
6D52: 84 0F          ANDA   #$0F
6D54: 81 0F          CMPA   #$0F
6D56: 27 0C          BEQ    $6D64
6D58: A6 88 31       LDA    $31,X
6D5B: 85 08          BITA   #$08
6D5D: 27 05          BEQ    $6D64
6D5F: 86 0F          LDA    #$0F
6D61: A7 88 38       STA    $38,X
6D64: 39             RTS

6D65: 34 40          PSHS   U
6D67: 96 36          LDA    $36
6D69: 81 01          CMPA   #$01
6D6B: 26 65          BNE    $6DD2
6D6D: DC 3C          LDD    $3C
6D6F: 10 83 06 18    CMPD   #$0618
6D73: 25 5D          BCS    $6DD2
6D75: CC 06 00       LDD    #$0600
6D78: 10 A3 04       CMPD   $4,X
6D7B: 25 55          BCS    $6DD2
6D7D: 6F 84          CLR    ,X
6D7F: 6F 88 13       CLR    $13,X
6D82: 6F 88 15       CLR    $15,X
6D85: 7A 09 EF       DEC    $09EF
6D88: A6 88 45       LDA    $45,X
6D8B: 27 03          BEQ    $6D90
6D8D: 7A 0A B5       DEC    $0AB5
6D90: A6 88 17       LDA    $17,X
6D93: 2A 08          BPL    $6D9D
6D95: B6 09 F2       LDA    $09F2
6D98: 8A 80          ORA    #$80
6D9A: B7 09 F2       STA    $09F2
6D9D: A6 88 21       LDA    $21,X
6DA0: 27 30          BEQ    $6DD2
6DA2: 10 AE 88 41    LDY    $41,X
6DA6: CC 00 00       LDD    #$0000
6DA9: A7 A4          STA    ,Y
6DAB: A7 88 21       STA    $21,X
6DAE: ED 88 41       STD    $41,X
6DB1: ED A8 1F       STD    $1F,Y
6DB4: A7 A8 16       STA    $16,Y
6DB7: A6 A8 17       LDA    $17,Y
6DBA: 81 07          CMPA   #$07
6DBC: 24 14          BCC    $6DD2
6DBE: CE 73 4F       LDU    #$734F
6DC1: A6 C6          LDA    A,U		      ; [bank_address]
6DC3: 81 FF          CMPA   #$FF
6DC5: 27 0B          BEQ    $6DD2
6DC7: CE 73 56       LDU    #$7356
6DCA: EE C6          LDU    A,U      ; [bank_address]
6DCC: 6D C4          TST    ,U
6DCE: 27 02          BEQ    $6DD2
6DD0: 6A C4          DEC    ,U
6DD2: 35 C0          PULS   U,PC

6DD4: 34 20          PSHS   Y
6DD6: FC 0E 5D       LDD    $0E5D
6DD9: 10 26 00 7C    LBNE   $6E59
6DDD: A6 88 1B       LDA    $1B,X
6DE0: 84 7F          ANDA   #$7F
6DE2: 81 01          CMPA   #$01
6DE4: 27 73          BEQ    $6E59
6DE6: 81 00          CMPA   #$00
6DE8: 26 13          BNE    $6DFD
6DEA: A6 88 37       LDA    $37,X
6DED: 81 02          CMPA   #$02
6DEF: 25 53          BCS    $6E44
6DF1: 86 01          LDA    #$01
6DF3: A7 88 1B       STA    $1B,X
6DF6: 86 01          LDA    #$01
6DF8: A7 88 22       STA    $22,X
6DFB: 20 5C          BRA    $6E59
6DFD: E6 88 15       LDB    $15,X
6E00: C5 40          BITB   #$40
6E02: 26 55          BNE    $6E59
6E04: 84 F7          ANDA   #$F7
6E06: A7 88 4C       STA    $4C,X
6E09: A6 88 1B       LDA    $1B,X
6E0C: 84 3F          ANDA   #$3F
6E0E: 81 06          CMPA   #$06
6E10: 27 0C          BEQ    $6E1E
6E12: 81 08          CMPA   #$08
6E14: 27 08          BEQ    $6E1E
6E16: 81 09          CMPA   #$09
6E18: 27 04          BEQ    $6E1E
6E1A: 86 0A          LDA    #$0A
6E1C: 26 26          BNE    $6E44
6E1E: 10 AE 88 2D    LDY    $2D,X
6E22: A6 A8 16       LDA    $16,Y
6E25: 84 F9          ANDA   #$F9
6E27: A7 A8 16       STA    $16,Y
6E2A: A6 21          LDA    $1,Y
6E2C: 81 02          CMPA   #$02
6E2E: 24 0F          BCC    $6E3F
6E30: 86 01          LDA    #$01
6E32: A7 A8 1B       STA    $1B,Y
6E35: 86 08          LDA    #$08
6E37: A7 A8 22       STA    $22,Y
6E3A: 6F A8 1F       CLR    $1F,Y
6E3D: 20 05          BRA    $6E44
6E3F: 86 00          LDA    #$00
6E41: A7 A8 1B       STA    $1B,Y
6E44: 86 01          LDA    #$01
6E46: A7 88 1B       STA    $1B,X
6E49: 86 08          LDA    #$08
6E4B: A7 88 22       STA    $22,X
6E4E: 6F 88 1F       CLR    $1F,X
6E51: A6 88 16       LDA    $16,X
6E54: 84 F9          ANDA   #$F9
6E56: A7 88 16       STA    $16,X
6E59: 35 A0          PULS   Y,PC
6E5B: 34 40          PSHS   U
6E5D: 0D 37          TST    $37
6E5F: 27 6B          BEQ    $6ECC
6E61: DC 3F          LDD    $3F
6E63: 10 83 01 70    CMPD   #$0170
6E67: 25 61          BCS    $6ECA
6E69: EC 08          LDD    $8,X
6E6B: E3 06          ADDD   $6,X
6E6D: C3 00 10       ADDD   #$0010
6E70: 10 93 3F       CMPD   $3F
6E73: 24 55          BCC    $6ECA
6E75: 6F 84          CLR    ,X
6E77: 6F 88 13       CLR    $13,X
6E7A: 6F 88 15       CLR    $15,X
6E7D: 7A 09 EF       DEC    $09EF
6E80: A6 88 45       LDA    $45,X
6E83: 27 03          BEQ    $6E88
6E85: 7A 0A B5       DEC    $0AB5
6E88: A6 88 17       LDA    $17,X
6E8B: 2A 08          BPL    $6E95
6E8D: B6 09 F2       LDA    $09F2
6E90: 8A 80          ORA    #$80
6E92: B7 09 F2       STA    $09F2
6E95: A6 88 21       LDA    $21,X
6E98: 27 30          BEQ    $6ECA
6E9A: 10 AE 88 41    LDY    $41,X
6E9E: CC 00 00       LDD    #$0000
6EA1: A7 A4          STA    ,Y
6EA3: A7 88 21       STA    $21,X
6EA6: A7 A8 16       STA    $16,Y
6EA9: ED 88 41       STD    $41,X
6EAC: ED A8 1F       STD    $1F,Y
6EAF: A6 A8 17       LDA    $17,Y
6EB2: 81 07          CMPA   #$07
6EB4: 24 14          BCC    $6ECA
6EB6: CE 73 4F       LDU    #$734F
6EB9: A6 C6          LDA    A,U
6EBB: 81 FF          CMPA   #$FF
6EBD: 27 0B          BEQ    $6ECA
6EBF: CE 73 56       LDU    #$7356
6EC2: EE C6          LDU    A,U
6EC4: 6D C4          TST    ,U
6EC6: 27 02          BEQ    $6ECA
6EC8: 6A C4          DEC    ,U
6ECA: 35 C0          PULS   U,PC
6ECC: CC 11 20       LDD    #$1120
6ECF: 10 A3 04       CMPD   $4,X
6ED2: 24 F6          BCC    $6ECA
6ED4: 7E 6E 75       JMP    $6E75
6ED7: A6 88 3A       LDA    $3A,X
6EDA: 81 40          CMPA   #$40
6EDC: 24 27          BCC    $6F05
6EDE: 1F 89          TFR    A,B
6EE0: 3D             MUL
6EE1: 34 06          PSHS   D		; [manual_stack_push]
6EE3: A6 88 3B       LDA    $3B,X
6EE6: 1F 89          TFR    A,B
6EE8: 3D             MUL
6EE9: E3 E4          ADDD   ,S		; [handled]
6EEB: 34 02          PSHS   A
6EED: 10 8E 00 81    LDY    #$0081
6EF1: 96 80          LDA    $80
6EF3: C6 02          LDB    #$02
6EF5: 3D             MUL
6EF6: 31 AB          LEAY   D,Y
6EF8: 35 02          PULS   A
6EFA: A7 A0          STA    ,Y+
6EFC: B6 09 F0       LDA    $09F0
6EFF: A7 A4          STA    ,Y
6F01: 0C 80          INC    $80
6F03: 35 86          PULS   D,PC	; [manual_stack_pull]

6F05: 34 02          PSHS   A
6F07: 10 8E 00 94    LDY    #$0094
6F0B: 96 93          LDA    $93
6F0D: C6 02          LDB    #$02
6F0F: 3D             MUL
6F10: 31 AB          LEAY   D,Y
6F12: 35 02          PULS   A
6F14: A7 A0          STA    ,Y+
6F16: B6 09 F0       LDA    $09F0
6F19: A7 A4          STA    ,Y
6F1B: 0C 93          INC    $93
6F1D: 39             RTS

6F1E: A6 88 3C       LDA    $3C,X
6F21: 81 40          CMPA   #$40
6F23: 24 27          BCC    $6F4C
6F25: 1F 89          TFR    A,B
6F27: 3D             MUL

6F28: 34 06          PSHS   D		; [manual_stack_push]
6F2A: A6 88 3D       LDA    $3D,X
6F2D: 1F 89          TFR    A,B
6F2F: 3D             MUL
6F30: E3 E4          ADDD   ,S		; [handled]
6F32: 34 02          PSHS   A
6F34: 10 8E 00 A7    LDY    #$00A7
6F38: 96 A6          LDA    $A6
6F3A: C6 02          LDB    #$02
6F3C: 3D             MUL
6F3D: 31 AB          LEAY   D,Y
6F3F: 35 02          PULS   A
6F41: A7 A0          STA    ,Y+
6F43: B6 09 F0       LDA    $09F0
6F46: A7 A4          STA    ,Y
6F48: 0C A6          INC    $A6
6F4A: 35 86          PULS   D,PC	; [manual_stack_pull]

6F4C: 34 02          PSHS   A
6F4E: 10 8E 00 BA    LDY    #$00BA
6F52: 96 B9          LDA    $B9
6F54: C6 02          LDB    #$02
6F56: 3D             MUL
6F57: 31 AB          LEAY   D,Y
6F59: 35 02          PULS   A
6F5B: A7 A0          STA    ,Y+
6F5D: B6 09 F0       LDA    $09F0
6F60: A7 A4          STA    ,Y
6F62: 0C B9          INC    $B9
6F64: 39             RTS

6F65: A6 88 3A       LDA    $3A,X
6F68: A1 88 3C       CMPA   $3C,X
6F6B: 27 08          BEQ    $6F75
6F6D: 10 25 FF 66    LBCS   $6ED7
6F71: 10 24 FF A9    LBCC   $6F1E
6F75: A6 88 3B       LDA    $3B,X
6F78: A1 88 3D       CMPA   $3D,X
6F7B: 10 25 FF 58    LBCS   $6ED7
6F7F: 10 24 FF 9B    LBCC   $6F1E
6F83: 10 8E 00 81    LDY    #$0081
6F87: 96 80          LDA    $80
6F89: 5F             CLRB
6F8A: BD 6F AE       JSR    $6FAE
6F8D: 10 8E 00 94    LDY    #$0094
6F91: 96 93          LDA    $93
6F93: 5F             CLRB
6F94: BD 6F AE       JSR    $6FAE
6F97: 10 8E 00 A7    LDY    #$00A7
6F9B: 96 A6          LDA    $A6
6F9D: C6 01          LDB    #$01
6F9F: BD 6F AE       JSR    $6FAE
6FA2: 10 8E 00 BA    LDY    #$00BA
6FA6: 96 B9          LDA    $B9
6FA8: C6 01          LDB    #$01
6FAA: BD 6F AE       JSR    $6FAE
6FAD: 39             RTS
6FAE: 34 70          PSHS   U,Y,X
6FB0: 4D             TSTA
6FB1: 27 60          BEQ    $7013
6FB3: 97 00          STA    $00
6FB5: D7 05          STB    $05
6FB7: 10 9F 01       STY    $01
6FBA: 9E 01          LDX    $01
6FBC: 31 02          LEAY   $2,X
6FBE: 0F 03          CLR    $03
6FC0: 0F 04          CLR    $04
6FC2: 96 03          LDA    $03
6FC4: 4C             INCA
6FC5: 91 00          CMPA   $00
6FC7: 24 46          BCC    $700F
6FC9: 0C 03          INC    $03
6FCB: A6 A1          LDA    ,Y++
6FCD: A1 81          CMPA   ,X++
6FCF: 25 2E          BCS    $6FFF
6FD1: 26 3A          BNE    $700D
6FD3: A6 3F          LDA    -$1,Y
6FD5: 97 0F          STA    $0F
6FD7: BD 71 F7       JSR    $71F7
6FDA: DE 0E          LDU    $0E
6FDC: E6 C8 3B       LDB    $3B,U
6FDF: 0D 05          TST    $05
6FE1: 27 03          BEQ    $6FE6
6FE3: E6 C8 3D       LDB    $3D,U
6FE6: A6 1F          LDA    -$1,X
6FE8: 97 0F          STA    $0F
6FEA: BD 71 F7       JSR    $71F7
6FED: DE 0E          LDU    $0E
6FEF: 0D 05          TST    $05
6FF1: 27 07          BEQ    $6FFA
6FF3: E1 C8 3D       CMPB   $3D,U
6FF6: 24 15          BCC    $700D
6FF8: 25 05          BCS    $6FFF
6FFA: E1 C8 3B       CMPB   $3B,U
6FFD: 24 0E          BCC    $700D
6FFF: EC 1E          LDD    -$2,X
7001: 34 06          PSHS   D
7003: EC 3E          LDD    -$2,Y
7005: ED 1E          STD    -$2,X
7007: 35 06          PULS   D
7009: ED 3E          STD    -$2,Y
700B: 0C 04          INC    $04
700D: 20 B3          BRA    $6FC2
700F: 96 04          LDA    $04
7011: 26 A7          BNE    $6FBA
7013: 35 F0          PULS   X,Y,U,PC

7015: A6 A1          LDA    ,Y++
7017: 97 0F          STA    $0F
7019: BD 71 F7       JSR    $71F7
701C: 9E 0E          LDX    $0E
701E: A6 88 14       LDA    $14,X
7021: 84 BF          ANDA   #$BF
7023: A7 88 14       STA    $14,X
7026: A6 88 39       LDA    $39,X
7029: 84 7F          ANDA   #$7F
702B: 91 00          CMPA   $00
702D: 27 24          BEQ    $7053
702F: E6 88 17       LDB    $17,X
7032: 2A 08          BPL    $703C
7034: 4D             TSTA
7035: 27 54          BEQ    $708B
7037: 6F 88 39       CLR    $39,X
703A: 20 4F          BRA    $708B
703C: A6 88 38       LDA    $38,X
703F: 84 7F          ANDA   #$7F
7041: 81 06          CMPA   #$06
7043: 27 0E          BEQ    $7053
7045: A6 88 1B       LDA    $1B,X
7048: 84 3F          ANDA   #$3F
704A: 81 05          CMPA   #$05
704C: 27 05          BEQ    $7053
704E: 96 00          LDA    $00
7050: A7 88 39       STA    $39,X
7053: EC 08          LDD    $8,X
7055: 10 B3 03 AA    CMPD   $03AA
7059: 27 07          BEQ    $7062
705B: 86 80          LDA    #$80
705D: A7 88 39       STA    $39,X
7060: 20 29          BRA    $708B
7062: A6 88 39       LDA    $39,X
7065: 84 7F          ANDA   #$7F
7067: 26 03          BNE    $706C
7069: BF 03 DE       STX    $03DE
706C: 81 03          CMPA   #$03
706E: 24 07          BCC    $7077
7070: 8E 03 F6       LDX    #$03F6
7073: E6 3E          LDB    -$2,Y
7075: E7 86          STB    A,X
7077: A6 88 38       LDA    $38,X
707A: 84 7F          ANDA   #$7F
707C: 81 06          CMPA   #$06
707E: 27 0B          BEQ    $708B
7080: A6 88 1B       LDA    $1B,X
7083: 84 3F          ANDA   #$3F
7085: 81 05          CMPA   #$05
7087: 27 02          BEQ    $708B
7089: 0C 00          INC    $00
708B: 0C 01          INC    $01
708D: 39             RTS
708E: A6 A1          LDA    ,Y++
7090: 97 0F          STA    $0F
7092: BD 71 F7       JSR    $71F7
7095: 9E 0E          LDX    $0E
7097: A6 88 14       LDA    $14,X
709A: 8A 40          ORA    #$40
709C: A7 88 14       STA    $14,X
709F: A6 88 39       LDA    $39,X
70A2: 84 7F          ANDA   #$7F
70A4: 91 00          CMPA   $00
70A6: 27 24          BEQ    $70CC
70A8: E6 88 17       LDB    $17,X
70AB: 2A 08          BPL    $70B5
70AD: 4D             TSTA
70AE: 27 54          BEQ    $7104
70B0: 6F 88 39       CLR    $39,X
70B3: 20 4F          BRA    $7104
70B5: A6 88 38       LDA    $38,X
70B8: 84 7F          ANDA   #$7F
70BA: 81 06          CMPA   #$06
70BC: 27 0E          BEQ    $70CC
70BE: A6 88 1B       LDA    $1B,X
70C1: 84 3F          ANDA   #$3F
70C3: 81 05          CMPA   #$05
70C5: 27 05          BEQ    $70CC
70C7: 96 00          LDA    $00
70C9: A7 88 39       STA    $39,X
70CC: EC 08          LDD    $8,X
70CE: 10 B3 04 08    CMPD   $0408
70D2: 27 07          BEQ    $70DB
70D4: 86 80          LDA    #$80
70D6: A7 88 39       STA    $39,X
70D9: 20 29          BRA    $7104
70DB: A6 88 39       LDA    $39,X
70DE: 84 7F          ANDA   #$7F
70E0: 26 03          BNE    $70E5
70E2: BF 04 3C       STX    $043C
70E5: 81 03          CMPA   #$03
70E7: 24 07          BCC    $70F0
70E9: 8E 04 54       LDX    #$0454
70EC: E6 3E          LDB    -$2,Y
70EE: E7 86          STB    A,X
70F0: A6 88 38       LDA    $38,X
70F3: 84 7F          ANDA   #$7F
70F5: 81 06          CMPA   #$06
70F7: 27 0B          BEQ    $7104
70F9: A6 88 1B       LDA    $1B,X
70FC: 84 3F          ANDA   #$3F
70FE: 81 05          CMPA   #$05
7100: 27 02          BEQ    $7104
7102: 0C 00          INC    $00
7104: 0C 01          INC    $01
7106: 39             RTS
7107: A6 A1          LDA    ,Y++
7109: 97 0F          STA    $0F
710B: BD 71 F7       JSR    $71F7
710E: 9E 0E          LDX    $0E
7110: 96 04          LDA    $04
7112: 26 73          BNE    $7187
7114: A6 88 14       LDA    $14,X
7117: 84 BF          ANDA   #$BF
7119: A7 88 14       STA    $14,X
711C: A6 88 39       LDA    $39,X
711F: 84 7F          ANDA   #$7F
7121: 91 00          CMPA   $00
7123: 27 27          BEQ    $714C
7125: E6 88 17       LDB    $17,X
7128: 2A 0B          BPL    $7135
712A: 4D             TSTA
712B: 10 27 00 C5    LBEQ   $71F4
712F: 6F 88 39       CLR    $39,X
7132: 7E 71 F4       JMP    $71F4
7135: A6 88 38       LDA    $38,X
7138: 84 7F          ANDA   #$7F
713A: 81 06          CMPA   #$06
713C: 27 0E          BEQ    $714C
713E: A6 88 1B       LDA    $1B,X
7141: 84 3F          ANDA   #$3F
7143: 81 05          CMPA   #$05
7145: 27 05          BEQ    $714C
7147: 96 00          LDA    $00
7149: A7 88 39       STA    $39,X
714C: EC 08          LDD    $8,X
714E: 10 B3 03 AA    CMPD   $03AA
7152: 27 08          BEQ    $715C
7154: 86 80          LDA    #$80
7156: A7 88 39       STA    $39,X
7159: 7E 71 F4       JMP    $71F4
715C: A6 88 39       LDA    $39,X
715F: 84 7F          ANDA   #$7F
7161: 26 03          BNE    $7166
7163: BF 03 DE       STX    $03DE
7166: 81 03          CMPA   #$03
7168: 24 07          BCC    $7171
716A: 8E 03 F6       LDX    #$03F6
716D: E6 3E          LDB    -$2,Y
716F: E7 86          STB    A,X
7171: A6 88 38       LDA    $38,X
7174: 84 7F          ANDA   #$7F
7176: 81 06          CMPA   #$06
7178: 27 7A          BEQ    $71F4
717A: A6 88 1B       LDA    $1B,X
717D: 84 3F          ANDA   #$3F
717F: 81 05          CMPA   #$05
7181: 27 71          BEQ    $71F4
7183: 0C 00          INC    $00
7185: 20 6D          BRA    $71F4
7187: A6 88 14       LDA    $14,X
718A: 8A 40          ORA    #$40
718C: A7 88 14       STA    $14,X
718F: A6 88 39       LDA    $39,X
7192: 84 7F          ANDA   #$7F
7194: 91 01          CMPA   $01
7196: 27 24          BEQ    $71BC
7198: E6 88 17       LDB    $17,X
719B: 2A 08          BPL    $71A5
719D: 4D             TSTA
719E: 27 54          BEQ    $71F4
71A0: 6F 88 39       CLR    $39,X
71A3: 20 4F          BRA    $71F4
71A5: A6 88 38       LDA    $38,X
71A8: 84 7F          ANDA   #$7F
71AA: 81 06          CMPA   #$06
71AC: 27 0E          BEQ    $71BC
71AE: A6 88 1B       LDA    $1B,X
71B1: 84 3F          ANDA   #$3F
71B3: 81 05          CMPA   #$05
71B5: 27 05          BEQ    $71BC
71B7: 96 01          LDA    $01
71B9: A7 88 39       STA    $39,X
71BC: EC 08          LDD    $8,X
71BE: 10 B3 04 08    CMPD   $0408
71C2: 27 07          BEQ    $71CB
71C4: 86 80          LDA    #$80
71C6: A7 88 39       STA    $39,X
71C9: 20 29          BRA    $71F4
71CB: A6 88 39       LDA    $39,X
71CE: 84 7F          ANDA   #$7F
71D0: 26 03          BNE    $71D5
71D2: BF 04 3C       STX    $043C
71D5: 81 03          CMPA   #$03
71D7: 24 07          BCC    $71E0
71D9: 8E 04 54       LDX    #$0454
71DC: E6 3E          LDB    -$2,Y
71DE: E7 86          STB    A,X
71E0: A6 88 38       LDA    $38,X
71E3: 84 7F          ANDA   #$7F
71E5: 81 06          CMPA   #$06
71E7: 27 0B          BEQ    $71F4
71E9: A6 88 1B       LDA    $1B,X
71EC: 84 3F          ANDA   #$3F
71EE: 81 05          CMPA   #$05
71F0: 27 02          BEQ    $71F4
71F2: 0C 01          INC    $01
71F4: 0C 05          INC    $05
71F6: 39             RTS
71F7: 34 36          PSHS   Y,X,D
71F9: 8E 04 5E       LDX    #$045E
71FC: 96 0F          LDA    $0F
71FE: C6 55          LDB    #$55
7200: 3D             MUL
7201: 30 8B          LEAX   D,X
7203: 9F 0E          STX    $0E
7205: 35 B6          PULS   D,X,Y,PC
7207: 7D 0E 3F       TST    $0E3F
720A: 27 4F          BEQ    $725B
720C: B6 0E 3F       LDA    $0E3F
720F: 2B 0E          BMI    $721F
7211: 8A 80          ORA    #$80
7213: B7 0E 3F       STA    $0E3F
7216: CC 00 00       LDD    #$0000
7219: B7 0E 40       STA    $0E40
721C: FD 0E 41       STD    $0E41
721F: 7C 0E 41       INC    $0E41
7222: F6 0E 41       LDB    $0E41
7225: 10 8E 72 5C    LDY    #$725C
7229: B6 0E 40       LDA    $0E40
722C: E1 A6          CMPB   A,Y
722E: 25 2B          BCS    $725B
7230: B6 0E 40       LDA    $0E40
7233: 88 01          EORA   #$01
7235: B7 0E 40       STA    $0E40
7238: 7F 0E 41       CLR    $0E41
723B: 4D             TSTA
723C: 27 0C          BEQ    $724A
723E: 7C 0E 42       INC    $0E42
7241: 34 02          PSHS   A
7243: 86 12          LDA    #$12
7245: BD 66 E6       JSR    flip_screen_if_needed_66e6
7248: 35 02          PULS   A
724A: BD 72 5E       JSR    $725E
724D: B6 0E 42       LDA    $0E42
7250: 81 04          CMPA   #$04
7252: 25 07          BCS    $725B
7254: 7F 0E 3F       CLR    $0E3F
7257: 4F             CLRA
7258: BD 72 5E       JSR    $725E
725B: 39             RTS

725E: 34 40          PSHS   U
7260: 32 7C          LEAS   -$4,S   ; [alloc_locals]
7262: A7 E4          STA    ,S	; [local]
7264: 86 04          LDA    #$04
7266: A7 61          STA    $1,S	; [local]
7268: 10 8E 72 8E    LDY    #$728E
726C: CE 1A AC       LDU    #$1AAC
726F: 86 04          LDA    #$04
7271: A7 62          STA    $2,S	; [local]
7273: 86 63          LDA    #$63
7275: E6 A0          LDB    ,Y+
7277: 6D E4          TST    ,S	; [local]
7279: 26 02          BNE    $727D
727B: 5F             CLRB
727C: 4F             CLRA
727D: ED C1          STD    ,U++
727F: 6A 62          DEC    $2,S	; [local]
7281: 26 F2          BNE    $7275
7283: 33 C8 38       LEAU   $38,U
7286: 6A 61          DEC    $1,S	; [local]
7288: 26 E5          BNE    $726F
728A: 32 64          LEAS   $4,S   ; [free_locals]
728C: 35 C0          PULS   U,PC

729E: 39             RTS                                                 

729F: 96 36          LDA    $36                                         
72A1: 48             ASLA                                               
72A2: 10 8E 72 A9    LDY    #jump_table_72a9
72A6: 6E B6          JMP    [A,Y]	; [indirect_jump] [nb_entries=4]
72A8: 39             RTS

jump_table_72a9:
	dc.w	$72b1 
	dc.w	$72fd
	dc.w	$72b1 
	dc.w	$72b1
	
72B1: 32 7F          LEAS   -$1,S			; [alloc_locals]
72B3: 8E 07 5B       LDX    #$075B
72B6: 6F E4          CLR    ,S	; [local]
72B8: A6 84          LDA    ,X
72BA: 2A 33          BPL    $72EF
72BC: A6 88 16       LDA    $16,X
72BF: 2A 08          BPL    $72C9
72C1: 10 AE 88 1F    LDY    $1F,X
72C5: A6 A4          LDA    ,Y
72C7: 2B 26          BMI    $72EF
72C9: EC 04          LDD    $4,X
72CB: C3 00 10       ADDD   #$0010
72CE: 10 93 3C       CMPD   $3C
72D1: 24 1C          BCC    $72EF
72D3: 6F 84          CLR    ,X
72D5: A6 88 17       LDA    $17,X
72D8: 81 07          CMPA   #$07
72DA: 24 13          BCC    $72EF
72DC: 10 8E 73 4F    LDY    #$734F
72E0: A6 A6          LDA    A,Y
72E2: 81 FF          CMPA   #$FF
72E4: 27 09          BEQ    $72EF
72E6: 10 8E 73 56    LDY    #$7356
72EA: 10 AE A6       LDY    A,Y
72ED: 6A A4          DEC    ,Y
72EF: C6 21          LDB    #$21
72F1: 3A             ABX
72F2: 6C E4          INC    ,S	; [local]
72F4: A6 E4          LDA    ,S	; [local]
72F6: 81 10          CMPA   #$10
72F8: 25 BE          BCS    $72B8
72FA: 32 61          LEAS   $1,S			; [free_locals]
72FC: 39             RTS

72FD: 32 7C          LEAS   -$4,S			; [alloc_locals]
72FF: 8E 07 5B       LDX    #$075B
7302: 6F E4          CLR    ,S	; [local]
7304: A6 84          LDA    ,X
7306: 2A 39          BPL    $7341
7308: A6 88 16       LDA    $16,X
730B: 2A 08          BPL    $7315
730D: 10 AE 88 1F    LDY    $1F,X
7311: A6 A4          LDA    ,Y
7313: 2B 2C          BMI    $7341
7315: EC 08          LDD    $8,X
7317: E3 06          ADDD   $6,X
7319: ED 61          STD    $1,S		; [local]
731B: DC 3F          LDD    $3F
731D: C3 01 10       ADDD   #$0110
7320: 10 A3 61       CMPD   $1,S	; [local]
7323: 24 1C          BCC    $7341
7325: 6F 84          CLR    ,X
7327: A6 88 17       LDA    $17,X
732A: 81 07          CMPA   #$07
732C: 24 13          BCC    $7341
732E: 10 8E 73 4F    LDY    #$734F
7332: A6 A6          LDA    A,Y
7334: 81 FF          CMPA   #$FF
7336: 27 09          BEQ    $7341
7338: 10 8E 73 56    LDY    #$7356
733C: 10 AE A6       LDY    A,Y
733F: 6A A4          DEC    ,Y
7341: C6 21          LDB    #$21
7343: 3A             ABX
7344: 6C E4          INC    ,S	; [local]
7346: A6 E4          LDA    ,S	; [local]
7348: 81 10          CMPA   #$10
734A: 25 B8          BCS    $7304
734C: 32 64          LEAS   $4,S			; [free_stack]   ; [free_locals]
734E: 39             RTS

7360: 34 36          PSHS   Y,X,D
7362: 10 8E 73 AD    LDY    #$73AD
7366: A6 01          LDA    $1,X
7368: 81 22          CMPA   #$22
736A: 25 02          BCS    $736E
736C: 80 17          SUBA   #$17
736E: 80 02          SUBA   #$02
7370: 48             ASLA
7371: 10 AE A6       LDY    A,Y		; [bank_address]
7374: 96 36          LDA    $36
7376: 48             ASLA
7377: 10 AE A6       LDY    A,Y
737A: A6 88 1E       LDA    $1E,X
737D: A6 A6          LDA    A,Y
737F: A7 88 3F       STA    $3F,X
7382: A6 88 3E       LDA    $3E,X
7385: 8A 80          ORA    #$80
7387: A7 88 3E       STA    $3E,X
738A: A6 01          LDA    $1,X
738C: 81 03          CMPA   #$03
738E: 27 04          BEQ    $7394
7390: 81 0A          CMPA   #$0A
7392: 26 17          BNE    $73AB
7394: A6 88 1E       LDA    $1E,X
7397: 81 04          CMPA   #$04
7399: 27 04          BEQ    $739F
739B: 81 13          CMPA   #$13
739D: 26 0C          BNE    $73AB
739F: A6 03          LDA    $3,X
73A1: 88 80          EORA   #$80
73A3: A7 03          STA    $3,X
73A5: A6 02          LDA    $2,X
73A7: 88 80          EORA   #$80
73A9: A7 02          STA    $2,X
73AB: 35 B6          PULS   D,X,Y,PC


753B: 6A 88 3F       DEC    $3F,X
753E: 27 1B          BEQ    $755B
7540: 6F 0E          CLR    $E,X
7542: B6 0E 49       LDA    $0E49
7545: 81 06          CMPA   #$06
7547: 24 07          BCC    $7550
7549: B6 0E 48       LDA    $0E48
754C: 81 2C          CMPA   #$2C
754E: 25 08          BCS    $7558
7550: 86 00          LDA    #$00
7552: A7 88 1B       STA    $1B,X
7555: 6F 88 38       CLR    $38,X
7558: 1C FE          ANDCC  #$FE
755A: 39             RTS
755B: 6F 88 3E       CLR    $3E,X
755E: 1A 01          ORCC   #$01
7560: 39             RTS

7561: 34 7E          PSHS   U,Y,X,DP,D
7563: 5F             CLRB
7564: 10 8E 07 5B    LDY    #$075B
7568: A6 A4          LDA    ,Y
756A: 2B 28          BMI    $7594
756C: 86 80          LDA    #$80
756E: A7 A4          STA    ,Y
7570: 86 08          LDA    #$08
7572: A7 A8 17       STA    $17,Y
7575: 86 20          LDA    #$20
7577: A7 21          STA    $1,Y
7579: 86 02          LDA    #$02
757B: A7 22          STA    $2,Y
757D: EC 04          LDD    $4,X
757F: 83 00 10       SUBD   #$0010
7582: ED 24          STD    $4,Y
7584: EC 06          LDD    $6,X
7586: ED 26          STD    $6,Y
7588: EC 08          LDD    $8,X
758A: C3 00 20       ADDD   #$0020
758D: ED 28          STD    $8,Y
758F: 6F A8 19       CLR    $19,Y
7592: 20 08          BRA    $759C
7594: 31 A8 21       LEAY   $21,Y
7597: 5C             INCB
7598: C1 10          CMPB   #$10
759A: 25 CC          BCS    $7568
759C: 35 FE          PULS   D,DP,X,Y,U,PC
759E: 6C 88 19       INC    $19,X
75A1: A6 88 19       LDA    $19,X
75A4: 81 04          CMPA   #$04
75A6: 25 02          BCS    $75AA
75A8: 6F 84          CLR    ,X
75AA: 39             RTS
75AB: 10 8E 75 E6    LDY    #$75E6
75AF: A6 88 1B       LDA    $1B,X
75B2: 2B 0E          BMI    $75C2
75B4: BD FE 64       JSR    $FE64
75B7: A6 A0          LDA    ,Y+		; [bank_address]
75B9: AA 03          ORA    $3,X
75BB: A7 02          STA    $2,X
75BD: A6 A4          LDA    ,Y		; [bank_address]
75BF: A7 88 19       STA    $19,X
75C2: 6A 88 19       DEC    $19,X
75C5: 26 1E          BNE    $75E5
75C7: 6C 88 18       INC    $18,X
75CA: A6 88 18       LDA    $18,X
75CD: 81 04          CMPA   #$04
75CF: 24 0F          BCC    $75E0
75D1: 48             ASLA
75D2: E6 A6          LDB    A,Y		; [bank_address]
75D4: EA 03          ORB    $3,X
75D6: E7 02          STB    $2,X
75D8: 4C             INCA
75D9: E6 A6          LDB    A,Y		; [bank_address]
75DB: E7 88 19       STB    $19,X
75DE: 20 05          BRA    $75E5
75E0: 86 00          LDA    #$00
75E2: A7 88 1B       STA    $1B,X
75E5: 39             RTS

75EE: 10 8E 76 29    LDY    #$7629
75F2: A6 88 1B       LDA    $1B,X
75F5: 2B 0E          BMI    $7605
75F7: BD FE 64       JSR    $FE64
75FA: A6 A0          LDA    ,Y+		; [bank_address]
75FC: AA 03          ORA    $3,X
75FE: A7 02          STA    $2,X
7600: A6 A4          LDA    ,Y		; [bank_address]
7602: A7 88 19       STA    $19,X
7605: 6A 88 19       DEC    $19,X
7608: 26 1E          BNE    $7628
760A: 6C 88 18       INC    $18,X
760D: A6 88 18       LDA    $18,X
7610: 81 04          CMPA   #$04
7612: 24 0F          BCC    $7623
7614: 48             ASLA
7615: E6 A6          LDB    A,Y		; [bank_address]
7617: EA 03          ORB    $3,X
7619: E7 02          STB    $2,X
761B: 4C             INCA
761C: E6 A6          LDB    A,Y		; [bank_address]
761E: E7 88 19       STB    $19,X
7621: 20 05          BRA    $7628
7623: 86 00          LDA    #$00
7625: A7 88 1B       STA    $1B,X
7628: 39             RTS

7631: 10 8E 76 72    LDY    #$7672
7635: A6 88 1B       LDA    $1B,X
7638: 2B 14          BMI    $764E
763A: BD FE 64       JSR    $FE64
763D: A6 03          LDA    $3,X
763F: 88 80          EORA   #$80
7641: A7 03          STA    $3,X
7643: A6 A0          LDA    ,Y+		; [bank_address]
7645: AA 03          ORA    $3,X
7647: A7 02          STA    $2,X
7649: A6 A4          LDA    ,Y		; [bank_address]
764B: A7 88 19       STA    $19,X
764E: 6A 88 19       DEC    $19,X
7651: 26 1E          BNE    $7671
7653: 6C 88 18       INC    $18,X
7656: A6 88 18       LDA    $18,X
7659: 81 02          CMPA   #$02
765B: 24 0F          BCC    $766C
765D: 48             ASLA
765E: E6 A6          LDB    A,Y		; [bank_address]
7660: EA 03          ORB    $3,X
7662: E7 02          STB    $2,X
7664: 4C             INCA
7665: E6 A6          LDB    A,Y		; [bank_address]
7667: E7 88 19       STB    $19,X
766A: 20 05          BRA    $7671
766C: 86 00          LDA    #$00
766E: A7 88 1B       STA    $1B,X
7671: 39             RTS

7676: 10 8E 76 B0    LDY    #$76B0
767A: A6 88 1B       LDA    $1B,X
767D: 2B 0E          BMI    $768D
767F: BD FE 64       JSR    $FE64
7682: A6 A0          LDA    ,Y+		; [bank_address]
7684: AA 03          ORA    $3,X
7686: A7 02          STA    $2,X
7688: A6 A4          LDA    ,Y		; [bank_address]
768A: A7 88 19       STA    $19,X
768D: 6A 88 19       DEC    $19,X
7690: 26 17          BNE    $76A9
7692: 6C 88 18       INC    $18,X
7695: A6 88 18       LDA    $18,X
7698: 81 02          CMPA   #$02
769A: 24 0E          BCC    $76AA
769C: 48             ASLA
769D: E6 A6          LDB    A,Y		; [bank_address]
769F: EA 03          ORB    $3,X
76A1: E7 02          STB    $2,X
76A3: 4C             INCA
76A4: E6 A6          LDB    A,Y		; [bank_address]
76A6: E7 88 19       STB    $19,X
76A9: 39             RTS
76AA: 86 00          LDA    #$00
76AC: A7 88 1B       STA    $1B,X
76AF: 39             RTS

76B4: 34 40          PSHS   U
76B6: CE 76 FD       LDU    #$76FD
76B9: 10 8E 76 FA    LDY    #$76FA
76BD: A6 88 1B       LDA    $1B,X
76C0: 2B 15          BMI    $76D7
76C2: BD FE 64       JSR    $FE64
76C5: A6 88 21       LDA    $21,X
76C8: 81 02          CMPA   #$02
76CA: 27 27          BEQ    $76F3
76CC: A6 A4          LDA    ,Y		; [bank_address]
76CE: AA 03          ORA    $3,X
76D0: A7 02          STA    $2,X
76D2: A6 C4          LDA    ,U		; [bank_address]
76D4: A7 88 19       STA    $19,X
76D7: 6A 88 19       DEC    $19,X
76DA: 26 1C          BNE    $76F8
76DC: 6C 88 18       INC    $18,X
76DF: A6 88 18       LDA    $18,X
76E2: 81 03          CMPA   #$03
76E4: 24 0D          BCC    $76F3
76E6: E6 A6          LDB    A,Y
76E8: EA 03          ORB    $3,X
76EA: E7 02          STB    $2,X
76EC: E6 C6          LDB    A,U
76EE: E7 88 19       STB    $19,X
76F1: 20 05          BRA    $76F8
76F3: 86 00          LDA    #$00
76F5: A7 88 1B       STA    $1B,X
76F8: 35 C0          PULS   U,PC

7700: 34 40          PSHS   U
7702: CE 77 49       LDU    #$7749
7705: 96 36          LDA    $36
7707: 48             ASLA
7708: 48             ASLA
7709: 33 C6          LEAU   A,U
770B: 10 8E 77 45    LDY    #$7745
770F: A6 88 1B       LDA    $1B,X
7712: 2B 0E          BMI    $7722
7714: BD FE 64       JSR    $FE64
7717: A6 A0          LDA    ,Y+		; [bank_address]
7719: AA 03          ORA    $3,X
771B: A7 02          STA    $2,X
771D: A6 C4          LDA    ,U		; [bank_address]
771F: A7 88 19       STA    $19,X
7722: 6A 88 19       DEC    $19,X
7725: 26 1C          BNE    $7743
7727: 6C 88 18       INC    $18,X
772A: A6 88 18       LDA    $18,X
772D: 81 04          CMPA   #$04
772F: 24 0D          BCC    $773E
7731: E6 A6          LDB    A,Y		; [bank_address]
7733: EA 03          ORB    $3,X
7735: E7 02          STB    $2,X
7737: E6 C6          LDB    A,U		; [bank_address]
7739: E7 88 19       STB    $19,X
773C: 20 05          BRA    $7743
773E: 86 00          LDA    #$00
7740: A7 88 1B       STA    $1B,X
7743: 35 C0          PULS   U,PC

7759: 10 BE 0E 4B    LDY    $0E4B
775D: A6 A8 1B       LDA    $1B,Y
7760: 84 3F          ANDA   #$3F
7762: 81 05          CMPA   #$05
7764: 10 27 00 8C    LBEQ   $77F4
7768: B6 0E 4A       LDA    $0E4A
776B: 46             RORA
776C: 46             RORA
776D: 84 80          ANDA   #$80
776F: A7 03          STA    $3,X
7771: 10 8E 77 FD    LDY    #$77FD
7775: A6 88 1B       LDA    $1B,X
7778: 2B 41          BMI    $77BB
777A: BD FE 64       JSR    $FE64
777D: A6 A0          LDA    ,Y+		; [bank_address]
777F: AA 03          ORA    $3,X
7781: A7 02          STA    $2,X
7783: 86 02          LDA    #$02
7785: A7 88 19       STA    $19,X
7788: 6F 0E          CLR    $E,X
778A: CC 00 20       LDD    #$0020
778D: 6D 03          TST    $3,X
778F: 27 03          BEQ    $7794
7791: CC FF E0       LDD    #$FFE0
7794: E3 04          ADDD   $4,X
7796: DD 00          STD    $00
7798: EC 06          LDD    $6,X
779A: DD 02          STD    $02
779C: EC 08          LDD    $8,X
779E: C3 00 29       ADDD   #$0029
77A1: DD 04          STD    $04
77A3: 86 40          LDA    #$40
77A5: AA 03          ORA    $3,X
77A7: 97 06          STA    $06
77A9: BD FD C8       JSR    $FDC8
77AC: A6 88 31       LDA    $31,X
77AF: 26 0A          BNE    $77BB
77B1: 86 96          LDA    #$96
77B3: BD 66 E6       JSR    flip_screen_if_needed_66e6
77B6: 86 01          LDA    #$01
77B8: A7 88 31       STA    $31,X
77BB: 6A 88 19       DEC    $19,X
77BE: 26 3C          BNE    $77FC
77C0: 6C 88 18       INC    $18,X
77C3: A6 88 18       LDA    $18,X
77C6: 81 02          CMPA   #$02
77C8: 24 0D          BCC    $77D7
77CA: E6 A6          LDB    A,Y
77CC: EA 03          ORB    $3,X
77CE: E7 02          STB    $2,X
77D0: C6 02          LDB    #$02
77D2: E7 88 19       STB    $19,X
77D5: 20 25          BRA    $77FC
77D7: B6 0E 49       LDA    $0E49
77DA: 81 0C          CMPA   #$0C
77DC: 24 16          BCC    $77F4
77DE: DC 3C          LDD    $3C
77E0: C3 00 10       ADDD   #$0010
77E3: 10 A3 04       CMPD   $4,X
77E6: 24 0C          BCC    $77F4
77E8: C3 00 E0       ADDD   #$00E0
77EB: 10 A3 04       CMPD   $4,X
77EE: 25 04          BCS    $77F4
77F0: 86 07          LDA    #$07
77F2: 20 05          BRA    $77F9
77F4: 6F 88 31       CLR    $31,X
77F7: 86 00          LDA    #$00
77F9: A7 88 1B       STA    $1B,X
77FC: 39             RTS
77FD: 1F 20          TFR    Y,D
77FF: 34 40          PSHS   U
7801: CE 78 48       LDU    #$7848
7804: 96 36          LDA    $36
7806: 48             ASLA
7807: 9B 36          ADDA   $36
7809: 33 C6          LEAU   A,U
780B: 10 8E 78 45    LDY    #$7845
780F: A6 88 1B       LDA    $1B,X
7812: 2B 0E          BMI    $7822
7814: BD FE 64       JSR    $FE64
7817: A6 A0          LDA    ,Y+		; [bank_address]
7819: AA 03          ORA    $3,X
781B: A7 02          STA    $2,X
781D: A6 C4          LDA    ,U		; [bank_address]
781F: A7 88 19       STA    $19,X
7822: 6A 88 19       DEC    $19,X
7825: 26 1C          BNE    $7843
7827: 6C 88 18       INC    $18,X
782A: A6 88 18       LDA    $18,X
782D: 81 03          CMPA   #$03
782F: 24 0D          BCC    $783E
7831: E6 A6          LDB    A,Y		; [bank_address]
7833: EA 03          ORB    $3,X
7835: E7 02          STB    $2,X
7837: E6 C6          LDB    A,U		; [bank_address]
7839: E7 88 19       STB    $19,X
783C: 20 05          BRA    $7843
783E: 86 00          LDA    #$00
7840: A7 88 1B       STA    $1B,X
7843: 35 C0          PULS   U,PC
